C51 COMPILER V9.54   INTERRUPT                                                             11/08/2018 15:11:09 PAGE 1   


C51 COMPILER V9.54, COMPILATION OF MODULE INTERRUPT
OBJECT MODULE PLACED IN .\OUTPUT\interrupt.obj
COMPILER INVOKED BY: C:\Keil_v5\C51\BIN\C51.EXE SRC\interrupt.c OPTIMIZE(0,SPEED) REGFILE(.\OUTPUT\motor.ORC) BROWSE INT
                    -VECTOR(0X2000) INCDIR(.\INC) DEBUG OBJECTEXTEND CODE PRINT(.\files\interrupt.lst) TABS(2) OBJECT(.\OUTPUT\interrupt.obj)

line level    source

   1          #include "register.h"
   2          #include <intrins.h>
   3          #include "app.h"
   4          #include "initial.h"
   5          
   6          
   7          /*interrupt number
   8           EXT1-4     0
   9           
  10           
  11          
  12           TIMER0     1
  13           TIMER1     3
  14           UART0      4
  15           ADC        8
  16           UART1      16
  17           
  18           COMP1      22
  19           TIMER3     23
  20           
  21           ePWM1-3    9
  22          
  23           ePMW4      20
  24           Timer5     21
  25           
  26           Timer6     24
  27           I2C        25
  28           SPI        26
  29           eFlash     27
  30           
  31           
  32          
  33          
  34          */
  35          
  36          
  37          void EXT1234Interrupt (void)  interrupt 0
  38          {
  39   1        
  40   1        if (EXT(1)==1)
  41   1        {
  42   2          
  43   2          CLR_EXT(1);
  44   2        }
  45   1        
  46   1        
  47   1        if (EXT(2)==1)  
  48   1        {
  49   2                P26=~P26;
  50   2          CLR_EXT(2);
  51   2        }
  52   1        
  53   1        
  54   1        if (EXT(3)==1)
C51 COMPILER V9.54   INTERRUPT                                                             11/08/2018 15:11:09 PAGE 2   

  55   1        {
  56   2          CLR_EXT(3);
  57   2        }
  58   1        
  59   1      
  60   1        if (EXT(4)==1)
  61   1        {
  62   2          
  63   2          CLR_EXT(4);
  64   2        }
  65   1        
  66   1        if ((EXT(1)==0)&&(EXT(2)==0)&&(EXT(3)==0)&&(EXT(4)==0))
  67   1          IE0=0;
  68   1      
  69   1      }
  70          
  71          
  72          
  73          
  74          
  75          
  76          
  77          /*  Timer interrupt   **/
  78          
  79          
  80          void TIMER0Interrupt(void)  interrupt 1
  81          {
  82   1      
  83   1          TF0=0;
  84   1       P04=~P04;
  85   1        
  86   1        
  87   1        SWFTRG=1;       //start next AD
  88   1        
  89   1      
  90   1      
  91   1      }
  92          
  93          void TIMER1Interrupt(void)  interrupt 3
  94          {
  95   1        
  96   1        
  97   1        TF1=0;
  98   1      }
  99          
 100          void TIMER3Interrupt(void)  interrupt 23
 101          {
 102   1        
 103   1        
 104   1        if (T3TF==1)
 105   1        {
 106   2          tmr3_ov++;
 107   2        
 108   2          T3TF=0;
 109   2        }
 110   1        
 111   1        if (T3EXF==1)
 112   1        {
 113   2      
 114   2          this_capture=(unsigned long) T3RC;
 115   2          if (T3EX_INV==1)                //capture falling edge and start counting
 116   2              {
C51 COMPILER V9.54   INTERRUPT                                                             11/08/2018 15:11:09 PAGE 3   

 117   3      
 118   3              T3EX_INV=0;                 //set to capture next rising edge 
 119   3              last_capture=this_capture;
 120   3              tmr3_ov=0;                    //reset tmr3_ov
 121   3            
 122   3              }
 123   2              else
 124   2              {
 125   3                
 126   3                
 127   3              if (!tmr3_ov)
 128   3                //rising edge to record time lapse
 129   3                {
 130   4                  
 131   4                pwm_capture=this_capture-last_capture;
 132   4          
 133   4                }
 134   3                else 
 135   3                {
 136   4                  pwm_capture=(unsigned long)(tmr3_ov)<<16;
 137   4                  
 138   4                  pwm_capture=pwm_capture+this_capture-last_capture;
 139   4                  
 140   4                  
 141   4                  
 142   4                }
 143   3                
 144   3                T3EX_INV=1;          //reset to capture falling edge 
 145   3      
 146   3                
 147   3              }
 148   2              T3EXF=0;
 149   2        }
 150   1        
 151   1        if ((T3TF==0)&&(T3EXF==0)&&(C1_INT==0))
 152   1          
 153   1          IE1=0;
 154   1      }
 155          
 156          void TIMER4Interrupt(void)  interrupt 17
 157          {
 158   1        
 159   1        
 160   1        
 161   1        T4TF=0;
 162   1      
 163   1        CLR_T4_INT();
 164   1      
 165   1        
 166   1        P26= ~P26;
 167   1        
 168   1            if ((RTC_INT==0)&&(LDV18_INT==0)&&(LDV33_INT==0)&&(T4_INT==0)&&(BP_INT==0))
 169   1            IEX6=0;
 170   1            
 171   1        
 172   1        
 173   1      }
 174          
 175          void TIMER5Interrupt(void)  interrupt 21
 176          {
 177   1      
 178   1        T5TF=0;
C51 COMPILER V9.54   INTERRUPT                                                             11/08/2018 15:11:09 PAGE 4   

 179   1        T5EXF=0;
 180   1      
 181   1        
 182   1        P26= ~P26;
 183   1        if ((T5_INT==0)&&(EPWM_INT(4)==0))
 184   1          IEX3=0;
 185   1        
 186   1        
 187   1      }
 188          void TIMER6Interrupt(void)  interrupt 24
 189          {
 190   1      
 191   1        T6TF=0;
 192   1        T6EXF=0;
 193   1        
 194   1        if ((I2C_INT==0)&&(SPI_INT==0)&&(EFLASH_INT==0)&&(T6_INT==0))
 195   1          IEX5=0;
 196   1        P26=~P26;
 197   1        
 198   1      }
 199          
 200          
 201          
 202          
 203          /*     EPWM interrupt */
 204          
 205          void ePWM123Interrupt(void) interrupt 9
 206          {
 207   1        if (EPWM1_INT==1)
 208   1        {
 209   2          
 210   2          
 211   2          
 212   2          CLR_EPWM1_INT();
 213   2        }
 214   1      
 215   1        
 216   1        if (EPWM2_INT==1)
 217   1        {
 218   2          
 219   2          
 220   2          
 221   2          
 222   2          
 223   2          CLR_EPWM2_INT();
 224   2        }
 225   1        
 226   1        
 227   1        if (EPWM3_INT==1)
 228   1        {
 229   2          
 230   2          CLR_EPWM3_INT(); 
 231   2        }
 232   1        
 233   1        if ((EPWM1_INT==0)&&(EPWM2_INT==0)&&(EPWM3_INT==0))
 234   1          IEX2=0;
 235   1        
 236   1      }
 237          
 238          
 239          void ePWM4Interrupt(void)  interrupt 20
 240          {
C51 COMPILER V9.54   INTERRUPT                                                             11/08/2018 15:11:09 PAGE 5   

 241   1      
 242   1         CLR_EPWM4_INT(); 
 243   1        
 244   1        if ((T5_INT==0)&&(EPWM4_INT==0))
 245   1            IEX3=0;
 246   1        
 247   1      }
 248          
 249          
 250          
 251          
 252          
 253          /* comparator interrupt */
 254          
 255          void Comp1Interrupt(void) interrupt 22
 256            
 257          {
 258   1        
 259   1        
 260   1        
 261   1        C1INT=0;  
 262   1        
 263   1        if ((T3_INT==0)&&(C1_INT==0))
 264   1            IE1=0;
 265   1      }
 266          
 267          
 268          void  Comp234Interrupt(void) interrupt 11
 269          
 270          {
 271   1        
 272   1        
 273   1        if (C2INT==1)
 274   1      
 275   1          {
 276   2            
 277   2            
 278   2          
 279   2            C2INT=0;  
 280   2      
 281   2          
 282   2      
 283   2      
 284   2            
 285   2          }
 286   1          
 287   1          if (C3INT==1)
 288   1      
 289   1          {
 290   2          
 291   2              C3INT=0;  
 292   2      
 293   2          }
 294   1                
 295   1          if (C4INT==1)
 296   1      
 297   1          {
 298   2        
 299   2            C4INT=0;  
 300   2      
 301   2            
 302   2          }
C51 COMPILER V9.54   INTERRUPT                                                             11/08/2018 15:11:09 PAGE 6   

 303   1          
 304   1          if ((C2INT==0)&&(C3INT==0)&&(C4INT==0))
 305   1              IEX4=0;
 306   1            
 307   1        }
 308          
 309          
 310          
 311            /*  serial communication  */
 312          
 313          void I2CInterrupt(void)  interrupt 25
 314          {
 315   1      
 316   1      //  CLR_I2C_INT();
 317   1        
 318   1        if ((I2C_INT==0)&&(SPI_INT==0)&&(EFLASH_INT==0)&&(T6_INT==0))
 319   1          IEX5=0;
 320   1      }
 321          
 322          void SPIInterrupt(void)  interrupt 26
 323          {
 324   1      
 325   1      //  CLR_SPI_INT();
 326   1        if ((I2C_INT==0)&&(SPI_INT==0)&&(EFLASH_INT==0)&&(T6_INT==0))
 327   1          IEX5=0;
 328   1      }
 329          
 330          void eFlashInterrupt(void)  interrupt 27
 331          {
 332   1      
 333   1      //  CLR_EFLASH_INT();
 334   1        if ((I2C_INT==0)&&(SPI_INT==0)&&(EFLASH_INT==0)&&(T6_INT==0))
 335   1          IEX5=0;
 336   1      }
 337          
 338          
 339          /*  voltage detect, RTC  */
 340          
 341          void RTCInterrupt(void) interrupt 28
 342          {
 343   1        
 344   1        
 345   1        
 346   1        CLR_RTC_INT();
 347   1            if ((RTC_INT==0)&&(LDV18_INT==0)&&(LDV33_INT==0)&&(T4_INT==0)&&(BP_INT==0))
 348   1            IEX6=0;
 349   1            
 350   1        
 351   1      }
 352            
 353          
 354          void LDV18Interrupt(void) interrupt 29
 355          {
 356   1        
 357   1        CLR_LDV18_INT();
 358   1            if ((RTC_INT==0)&&(LDV18_INT==0)&&(LDV33_INT==0)&&(T4_INT==0)&&(BP_INT==0))
 359   1            IEX6=0;
 360   1            
 361   1      
 362   1      }
 363          
 364          void LDV33Interrupt(void) interrupt 30
C51 COMPILER V9.54   INTERRUPT                                                             11/08/2018 15:11:09 PAGE 7   

 365          {
 366   1        
 367   1        CLR_LDV33_INT();
 368   1        
 369   1            if ((RTC_INT==0)&&(LDV18_INT==0)&&(LDV33_INT==0)&&(T4_INT==0)&&(BP_INT==0))
 370   1            IEX6=0;
 371   1            
 372   1      }
 373          
 374          
 375          
 376          
 377          
 378          /* debug and UART port */
 379            
 380          
 381          void UART1Interrupt(void) //interrupt 4
 382          {
 383   1          if(RI0 == 1)
 384   1          {
 385   2              RI0 = 0;
 386   2          }
 387   1      
 388   1          if(TI0 == 1)
 389   1          {
 390   2             TI0 = 0;
 391   2          }
 392   1      }
 393          
 394          void UART2Interrupt(void) interrupt 16
 395          {
 396   1          //receive
 397   1          if((S1CON & 0x01) == 0x01)
 398   1          {
 399   2              S1CON &= 0xfe;
 400   2      //        ucUARTReceiver = S1BUF;
 401   2      //        ucUARTReceiver++;
 402   2      //        ucUARTReceiver++;
 403   2      //        ucReceiveFlag = 1;
 404   2          }
 405   1      
 406   1          //transmit
 407   1          if((S1CON & 0x02) == 0x02)
 408   1          {
 409   2              S1CON &= 0xfd;
 410   2          }
 411   1      }
 412          
 413          void ADCInterrupt(void) interrupt 8
 414          {
 415   1        
 416   1      
 417   1          if (INTFL==1)
 418   1          {
 419   2              INTFL=0;
 420   2              IADC=0;
 421   2          }
 422   1        
 423   1          ADresult = AD4OUT;
 424   1      
 425   1        
 426   1      }
C51 COMPILER V9.54   INTERRUPT                                                             11/08/2018 15:11:09 PAGE 8   

ASSEMBLY LISTING OF GENERATED OBJECT CODE


             ; FUNCTION EXT1234Interrupt (BEGIN)
0000 C0E0              PUSH    ACC
0002 C0D0              PUSH    PSW
0004 75D000            MOV     PSW,#00H
0007 C007              PUSH    AR7
                                           ; SOURCE LINE # 37
                                           ; SOURCE LINE # 40
0009 E5F9              MOV     A,INT_REG1
000B 30E004            JNB     ACC.0,?C0002
000E 7F01              MOV     R7,#01H
0010 8002              SJMP    ?C0003
0012         ?C0002:
0012 7F00              MOV     R7,#00H
0014         ?C0003:
0014 EF                MOV     A,R7
0015 B40103            CJNE    A,#01H,?C0001
                                           ; SOURCE LINE # 41
                                           ; SOURCE LINE # 43
0018 53F9FE            ANL     INT_REG1,#0FEH
                                           ; SOURCE LINE # 44
001B         ?C0001:
                                           ; SOURCE LINE # 47
001B E5F9              MOV     A,INT_REG1
001D 30E104            JNB     ACC.1,?C0005
0020 7F01              MOV     R7,#01H
0022 8002              SJMP    ?C0006
0024         ?C0005:
0024 7F00              MOV     R7,#00H
0026         ?C0006:
0026 EF                MOV     A,R7
0027 B40105            CJNE    A,#01H,?C0004
                                           ; SOURCE LINE # 48
                                           ; SOURCE LINE # 49
002A B2A6              CPL     P26
                                           ; SOURCE LINE # 50
002C 53F9FC            ANL     INT_REG1,#0FCH
                                           ; SOURCE LINE # 51
002F         ?C0004:
                                           ; SOURCE LINE # 54
002F E5F9              MOV     A,INT_REG1
0031 30E204            JNB     ACC.2,?C0008
0034 7F01              MOV     R7,#01H
0036 8002              SJMP    ?C0009
0038         ?C0008:
0038 7F00              MOV     R7,#00H
003A         ?C0009:
003A EF                MOV     A,R7
003B B40103            CJNE    A,#01H,?C0007
                                           ; SOURCE LINE # 55
                                           ; SOURCE LINE # 56
003E 53F9F8            ANL     INT_REG1,#0F8H
                                           ; SOURCE LINE # 57
0041         ?C0007:
                                           ; SOURCE LINE # 60
0041 E5F9              MOV     A,INT_REG1
0043 30E304            JNB     ACC.3,?C0011
0046 7F01              MOV     R7,#01H
0048 8002              SJMP    ?C0012
004A         ?C0011:
C51 COMPILER V9.54   INTERRUPT                                                             11/08/2018 15:11:09 PAGE 9   

004A 7F00              MOV     R7,#00H
004C         ?C0012:
004C EF                MOV     A,R7
004D B40103            CJNE    A,#01H,?C0010
                                           ; SOURCE LINE # 61
                                           ; SOURCE LINE # 63
0050 53F9F0            ANL     INT_REG1,#0F0H
                                           ; SOURCE LINE # 64
0053         ?C0010:
                                           ; SOURCE LINE # 66
0053 E5F9              MOV     A,INT_REG1
0055 30E004            JNB     ACC.0,?C0014
0058 7F01              MOV     R7,#01H
005A 8002              SJMP    ?C0015
005C         ?C0014:
005C 7F00              MOV     R7,#00H
005E         ?C0015:
005E EF                MOV     A,R7
005F 702C              JNZ     ?C0022
0061 E5F9              MOV     A,INT_REG1
0063 30E104            JNB     ACC.1,?C0016
0066 7F01              MOV     R7,#01H
0068 8002              SJMP    ?C0017
006A         ?C0016:
006A 7F00              MOV     R7,#00H
006C         ?C0017:
006C EF                MOV     A,R7
006D 701E              JNZ     ?C0022
006F E5F9              MOV     A,INT_REG1
0071 30E204            JNB     ACC.2,?C0018
0074 7F01              MOV     R7,#01H
0076 8002              SJMP    ?C0019
0078         ?C0018:
0078 7F00              MOV     R7,#00H
007A         ?C0019:
007A EF                MOV     A,R7
007B 7010              JNZ     ?C0022
007D E5F9              MOV     A,INT_REG1
007F 30E304            JNB     ACC.3,?C0020
0082 7F01              MOV     R7,#01H
0084 8002              SJMP    ?C0021
0086         ?C0020:
0086 7F00              MOV     R7,#00H
0088         ?C0021:
0088 EF                MOV     A,R7
0089 7002              JNZ     ?C0022
                                           ; SOURCE LINE # 67
008B C289              CLR     IE0
008D         ?C0013:
                                           ; SOURCE LINE # 69
008D         ?C0022:
008D D007              POP     AR7
008F D0D0              POP     PSW
0091 D0E0              POP     ACC
0093 32                RETI    
             ; FUNCTION EXT1234Interrupt (END)

             ; FUNCTION TIMER0Interrupt (BEGIN)
0000 C0E0              PUSH    ACC
0002 C083              PUSH    DPH
0004 C082              PUSH    DPL
0006 C0D0              PUSH    PSW
C51 COMPILER V9.54   INTERRUPT                                                             11/08/2018 15:11:09 PAGE 10  

0008 75D000            MOV     PSW,#00H
000B C007              PUSH    AR7
                                           ; SOURCE LINE # 80
                                           ; SOURCE LINE # 83
000D C28D              CLR     TF0
                                           ; SOURCE LINE # 84
000F B284              CPL     P04
                                           ; SOURCE LINE # 87
0011 90E05A            MOV     DPTR,#0E05AH
0014 E0                MOVX    A,@DPTR
0015 FF                MOV     R7,A
0016 EF                MOV     A,R7
0017 4420              ORL     A,#020H
0019 FF                MOV     R7,A
001A EF                MOV     A,R7
001B F0                MOVX    @DPTR,A
                                           ; SOURCE LINE # 91
001C         ?C0023:
001C D007              POP     AR7
001E D0D0              POP     PSW
0020 D082              POP     DPL
0022 D083              POP     DPH
0024 D0E0              POP     ACC
0026 32                RETI    
             ; FUNCTION TIMER0Interrupt (END)

             ; FUNCTION TIMER1Interrupt (BEGIN)
                                           ; SOURCE LINE # 93
                                           ; SOURCE LINE # 97
0000 C28F              CLR     TF1
                                           ; SOURCE LINE # 98
0002         ?C0024:
0002 32                RETI    
             ; FUNCTION TIMER1Interrupt (END)

             ; FUNCTION TIMER3Interrupt (BEGIN)
0000 C0E0              PUSH    ACC
0002 C083              PUSH    DPH
0004 C082              PUSH    DPL
0006 C0D0              PUSH    PSW
0008 75D000            MOV     PSW,#00H
000B C000              PUSH    AR0
000D C004              PUSH    AR4
000F C005              PUSH    AR5
0011 C006              PUSH    AR6
0013 C007              PUSH    AR7
                                           ; SOURCE LINE # 100
                                           ; SOURCE LINE # 104
0015 90E0C8            MOV     DPTR,#0E0C8H
0018 E0                MOVX    A,@DPTR
0019 FF                MOV     R7,A
001A EF                MOV     A,R7
001B C4                SWAP    A
001C 13                RRC     A
001D 13                RRC     A
001E 13                RRC     A
001F 5401              ANL     A,#01H
0021 FF                MOV     R7,A
0022 EF                MOV     A,R7
0023 30E00D            JNB     ACC.0,?C0025
                                           ; SOURCE LINE # 105
                                           ; SOURCE LINE # 106
C51 COMPILER V9.54   INTERRUPT                                                             11/08/2018 15:11:09 PAGE 11  

0026 0500        E     INC     tmr3_ov
                                           ; SOURCE LINE # 108
0028 90E0C8            MOV     DPTR,#0E0C8H
002B E0                MOVX    A,@DPTR
002C FF                MOV     R7,A
002D EF                MOV     A,R7
002E 547F              ANL     A,#07FH
0030 FF                MOV     R7,A
0031 EF                MOV     A,R7
0032 F0                MOVX    @DPTR,A
                                           ; SOURCE LINE # 109
0033         ?C0025:
                                           ; SOURCE LINE # 111
0033 90E0C8            MOV     DPTR,#0E0C8H
0036 E0                MOVX    A,@DPTR
0037 FF                MOV     R7,A
0038 EF                MOV     A,R7
0039 C4                SWAP    A
003A 13                RRC     A
003B 13                RRC     A
003C 5403              ANL     A,#03H
003E FF                MOV     R7,A
003F EF                MOV     A,R7
0040 20E003            JB      ACC.0,$ + 6H
0043 020000      R     LJMP    ?C0026
                                           ; SOURCE LINE # 112
                                           ; SOURCE LINE # 114
0046 90E0CC            MOV     DPTR,#0E0CCH
0049 E0                MOVX    A,@DPTR
004A FE                MOV     R6,A
004B A3                INC     DPTR
004C E0                MOVX    A,@DPTR
004D FF                MOV     R7,A
004E E4                CLR     A
004F FC                MOV     R4,A
0050 FD                MOV     R5,A
0051 8F00        E     MOV     this_capture+03H,R7
0053 8E00        E     MOV     this_capture+02H,R6
0055 8D00        E     MOV     this_capture+01H,R5
0057 8C00        E     MOV     this_capture,R4
                                           ; SOURCE LINE # 115
0059 90E08A            MOV     DPTR,#0E08AH
005C E0                MOVX    A,@DPTR
005D FF                MOV     R7,A
005E EF                MOV     A,R7
005F 30E020            JNB     ACC.0,?C0027
                                           ; SOURCE LINE # 116
                                           ; SOURCE LINE # 118
0062 90E08A            MOV     DPTR,#0E08AH
0065 E0                MOVX    A,@DPTR
0066 FF                MOV     R7,A
0067 EF                MOV     A,R7
0068 54FE              ANL     A,#0FEH
006A FF                MOV     R7,A
006B EF                MOV     A,R7
006C F0                MOVX    @DPTR,A
                                           ; SOURCE LINE # 119
006D AF00        E     MOV     R7,this_capture+03H
006F AE00        E     MOV     R6,this_capture+02H
0071 AD00        E     MOV     R5,this_capture+01H
0073 AC00        E     MOV     R4,this_capture
0075 8F00        E     MOV     last_capture+03H,R7
C51 COMPILER V9.54   INTERRUPT                                                             11/08/2018 15:11:09 PAGE 12  

0077 8E00        E     MOV     last_capture+02H,R6
0079 8D00        E     MOV     last_capture+01H,R5
007B 8C00        E     MOV     last_capture,R4
                                           ; SOURCE LINE # 120
007D 750000      E     MOV     tmr3_ov,#00H
                                           ; SOURCE LINE # 122
0080 8066              SJMP    ?C0028
0082         ?C0027:
                                           ; SOURCE LINE # 124
                                           ; SOURCE LINE # 127
0082 E500        E     MOV     A,tmr3_ov
0084 701B              JNZ     ?C0029
                                           ; SOURCE LINE # 129
                                           ; SOURCE LINE # 131
0086 C3                CLR     C
0087 E500        E     MOV     A,this_capture+03H
0089 9500        E     SUBB    A,last_capture+03H
008B F500        E     MOV     pwm_capture+03H,A
008D E500        E     MOV     A,this_capture+02H
008F 9500        E     SUBB    A,last_capture+02H
0091 F500        E     MOV     pwm_capture+02H,A
0093 E500        E     MOV     A,this_capture+01H
0095 9500        E     SUBB    A,last_capture+01H
0097 F500        E     MOV     pwm_capture+01H,A
0099 E500        E     MOV     A,this_capture
009B 9500        E     SUBB    A,last_capture
009D F500        E     MOV     pwm_capture,A
                                           ; SOURCE LINE # 133
009F 803C              SJMP    ?C0030
00A1         ?C0029:
                                           ; SOURCE LINE # 135
                                           ; SOURCE LINE # 136
00A1 AF00        E     MOV     R7,tmr3_ov
00A3 E4                CLR     A
00A4 FC                MOV     R4,A
00A5 FD                MOV     R5,A
00A6 FE                MOV     R6,A
00A7 7810              MOV     R0,#010H
00A9 120000      E     LCALL   ?C?LSHL
00AC 8F00        E     MOV     pwm_capture+03H,R7
00AE 8E00        E     MOV     pwm_capture+02H,R6
00B0 8D00        E     MOV     pwm_capture+01H,R5
00B2 8C00        E     MOV     pwm_capture,R4
                                           ; SOURCE LINE # 138
00B4 E500        E     MOV     A,pwm_capture+03H
00B6 2500        E     ADD     A,this_capture+03H
00B8 FF                MOV     R7,A
00B9 E500        E     MOV     A,pwm_capture+02H
00BB 3500        E     ADDC    A,this_capture+02H
00BD FE                MOV     R6,A
00BE E500        E     MOV     A,pwm_capture+01H
00C0 3500        E     ADDC    A,this_capture+01H
00C2 FD                MOV     R5,A
00C3 E500        E     MOV     A,pwm_capture
00C5 3500        E     ADDC    A,this_capture
00C7 FC                MOV     R4,A
00C8 C3                CLR     C
00C9 EF                MOV     A,R7
00CA 9500        E     SUBB    A,last_capture+03H
00CC F500        E     MOV     pwm_capture+03H,A
00CE EE                MOV     A,R6
00CF 9500        E     SUBB    A,last_capture+02H
C51 COMPILER V9.54   INTERRUPT                                                             11/08/2018 15:11:09 PAGE 13  

00D1 F500        E     MOV     pwm_capture+02H,A
00D3 ED                MOV     A,R5
00D4 9500        E     SUBB    A,last_capture+01H
00D6 F500        E     MOV     pwm_capture+01H,A
00D8 EC                MOV     A,R4
00D9 9500        E     SUBB    A,last_capture
00DB F500        E     MOV     pwm_capture,A
                                           ; SOURCE LINE # 142
00DD         ?C0030:
                                           ; SOURCE LINE # 144
00DD 90E08A            MOV     DPTR,#0E08AH
00E0 E0                MOVX    A,@DPTR
00E1 FF                MOV     R7,A
00E2 EF                MOV     A,R7
00E3 4401              ORL     A,#01H
00E5 FF                MOV     R7,A
00E6 EF                MOV     A,R7
00E7 F0                MOVX    @DPTR,A
                                           ; SOURCE LINE # 147
00E8         ?C0028:
                                           ; SOURCE LINE # 148
00E8 90E0C8            MOV     DPTR,#0E0C8H
00EB E0                MOVX    A,@DPTR
00EC FF                MOV     R7,A
00ED EF                MOV     A,R7
00EE 54BF              ANL     A,#0BFH
00F0 FF                MOV     R7,A
00F1 EF                MOV     A,R7
00F2 F0                MOVX    @DPTR,A
                                           ; SOURCE LINE # 149
00F3         ?C0026:
                                           ; SOURCE LINE # 151
00F3 90E0C8            MOV     DPTR,#0E0C8H
00F6 E0                MOVX    A,@DPTR
00F7 FF                MOV     R7,A
00F8 EF                MOV     A,R7
00F9 C4                SWAP    A
00FA 13                RRC     A
00FB 13                RRC     A
00FC 13                RRC     A
00FD 5401              ANL     A,#01H
00FF FF                MOV     R7,A
0100 EF                MOV     A,R7
0101 20E020            JB      ACC.0,?C0034
0104 90E0C8            MOV     DPTR,#0E0C8H
0107 E0                MOVX    A,@DPTR
0108 FF                MOV     R7,A
0109 EF                MOV     A,R7
010A C4                SWAP    A
010B 13                RRC     A
010C 13                RRC     A
010D 5403              ANL     A,#03H
010F FF                MOV     R7,A
0110 EF                MOV     A,R7
0111 20E010            JB      ACC.0,?C0034
0114 E5F9              MOV     A,INT_REG1
0116 30E504            JNB     ACC.5,?C0032
0119 7F01              MOV     R7,#01H
011B 8002              SJMP    ?C0033
011D         ?C0032:
011D 7F00              MOV     R7,#00H
011F         ?C0033:
C51 COMPILER V9.54   INTERRUPT                                                             11/08/2018 15:11:09 PAGE 14  

011F EF                MOV     A,R7
0120 7002              JNZ     ?C0034
                                           ; SOURCE LINE # 153
0122 C28B              CLR     IE1
0124         ?C0031:
                                           ; SOURCE LINE # 154
0124         ?C0034:
0124 D007              POP     AR7
0126 D006              POP     AR6
0128 D005              POP     AR5
012A D004              POP     AR4
012C D000              POP     AR0
012E D0D0              POP     PSW
0130 D082              POP     DPL
0132 D083              POP     DPH
0134 D0E0              POP     ACC
0136 32                RETI    
             ; FUNCTION TIMER3Interrupt (END)

             ; FUNCTION TIMER4Interrupt (BEGIN)
0000 C0E0              PUSH    ACC
0002 C083              PUSH    DPH
0004 C082              PUSH    DPL
0006 C0D0              PUSH    PSW
0008 75D000            MOV     PSW,#00H
000B C007              PUSH    AR7
                                           ; SOURCE LINE # 156
                                           ; SOURCE LINE # 161
000D 90E0CE            MOV     DPTR,#0E0CEH
0010 E0                MOVX    A,@DPTR
0011 FF                MOV     R7,A
0012 EF                MOV     A,R7
0013 547F              ANL     A,#07FH
0015 FF                MOV     R7,A
0016 EF                MOV     A,R7
0017 F0                MOVX    @DPTR,A
                                           ; SOURCE LINE # 163
0018 53FEF0            ANL     INT_REG4,#0F0H
                                           ; SOURCE LINE # 166
001B B2A6              CPL     P26
                                           ; SOURCE LINE # 168
001D E5FE              MOV     A,INT_REG4
001F 30E004            JNB     ACC.0,?C0036
0022 7F01              MOV     R7,#01H
0024 8002              SJMP    ?C0037
0026         ?C0036:
0026 7F00              MOV     R7,#00H
0028         ?C0037:
0028 EF                MOV     A,R7
0029 703A              JNZ     ?C0046
002B E5FE              MOV     A,INT_REG4
002D 30E104            JNB     ACC.1,?C0038
0030 7F01              MOV     R7,#01H
0032 8002              SJMP    ?C0039
0034         ?C0038:
0034 7F00              MOV     R7,#00H
0036         ?C0039:
0036 EF                MOV     A,R7
0037 702C              JNZ     ?C0046
0039 E5FE              MOV     A,INT_REG4
003B 30E204            JNB     ACC.2,?C0040
003E 7F01              MOV     R7,#01H
C51 COMPILER V9.54   INTERRUPT                                                             11/08/2018 15:11:09 PAGE 15  

0040 8002              SJMP    ?C0041
0042         ?C0040:
0042 7F00              MOV     R7,#00H
0044         ?C0041:
0044 EF                MOV     A,R7
0045 701E              JNZ     ?C0046
0047 E5FE              MOV     A,INT_REG4
0049 30E304            JNB     ACC.3,?C0042
004C 7F01              MOV     R7,#01H
004E 8002              SJMP    ?C0043
0050         ?C0042:
0050 7F00              MOV     R7,#00H
0052         ?C0043:
0052 EF                MOV     A,R7
0053 7010              JNZ     ?C0046
0055 E593              MOV     A,BPCTRL
0057 30E704            JNB     ACC.7,?C0044
005A 7F01              MOV     R7,#01H
005C 8002              SJMP    ?C0045
005E         ?C0044:
005E 7F00              MOV     R7,#00H
0060         ?C0045:
0060 EF                MOV     A,R7
0061 7002              JNZ     ?C0046
                                           ; SOURCE LINE # 169
0063 C2C5              CLR     IEX6
0065         ?C0035:
                                           ; SOURCE LINE # 173
0065         ?C0046:
0065 D007              POP     AR7
0067 D0D0              POP     PSW
0069 D082              POP     DPL
006B D083              POP     DPH
006D D0E0              POP     ACC
006F 32                RETI    
             ; FUNCTION TIMER4Interrupt (END)

             ; FUNCTION TIMER5Interrupt (BEGIN)
0000 C0E0              PUSH    ACC
0002 C083              PUSH    DPH
0004 C082              PUSH    DPL
0006 C0D0              PUSH    PSW
0008 75D000            MOV     PSW,#00H
000B C006              PUSH    AR6
000D C007              PUSH    AR7
                                           ; SOURCE LINE # 175
                                           ; SOURCE LINE # 178
000F 90E0F3            MOV     DPTR,#0E0F3H
0012 E0                MOVX    A,@DPTR
0013 FF                MOV     R7,A
0014 EF                MOV     A,R7
0015 547F              ANL     A,#07FH
0017 FF                MOV     R7,A
0018 EF                MOV     A,R7
0019 F0                MOVX    @DPTR,A
                                           ; SOURCE LINE # 179
001A 90E0F3            MOV     DPTR,#0E0F3H
001D E0                MOVX    A,@DPTR
001E FF                MOV     R7,A
001F EF                MOV     A,R7
0020 54BF              ANL     A,#0BFH
0022 FF                MOV     R7,A
C51 COMPILER V9.54   INTERRUPT                                                             11/08/2018 15:11:09 PAGE 16  

0023 EF                MOV     A,R7
0024 F0                MOVX    @DPTR,A
                                           ; SOURCE LINE # 182
0025 B2A6              CPL     P26
                                           ; SOURCE LINE # 183
0027 90E0F3            MOV     DPTR,#0E0F3H
002A E0                MOVX    A,@DPTR
002B FF                MOV     R7,A
002C EF                MOV     A,R7
002D C4                SWAP    A
002E 13                RRC     A
002F 13                RRC     A
0030 5403              ANL     A,#03H
0032 FF                MOV     R7,A
0033 EF                MOV     A,R7
0034 30E004            JNB     ACC.0,?C0048
0037 7F01              MOV     R7,#01H
0039 8002              SJMP    ?C0049
003B         ?C0048:
003B 7F00              MOV     R7,#00H
003D         ?C0049:
003D 90E0F3            MOV     DPTR,#0E0F3H
0040 E0                MOVX    A,@DPTR
0041 FE                MOV     R6,A
0042 EE                MOV     A,R6
0043 C4                SWAP    A
0044 13                RRC     A
0045 13                RRC     A
0046 13                RRC     A
0047 5401              ANL     A,#01H
0049 FE                MOV     R6,A
004A EE                MOV     A,R6
004B 30E004            JNB     ACC.0,?C0050
004E 7E01              MOV     R6,#01H
0050 8002              SJMP    ?C0051
0052         ?C0050:
0052 7E00              MOV     R6,#00H
0054         ?C0051:
0054 EE                MOV     A,R6
0055 4F                ORL     A,R7
0056 FF                MOV     R7,A
0057 EF                MOV     A,R7
0058 7010              JNZ     ?C0054
005A E5FA              MOV     A,INT_REG2
005C 30E304            JNB     ACC.3,?C0052
005F 7F01              MOV     R7,#01H
0061 8002              SJMP    ?C0053
0063         ?C0052:
0063 7F00              MOV     R7,#00H
0065         ?C0053:
0065 EF                MOV     A,R7
0066 7002              JNZ     ?C0054
                                           ; SOURCE LINE # 184
0068 C2C2              CLR     IEX3
006A         ?C0047:
                                           ; SOURCE LINE # 187
006A         ?C0054:
006A D007              POP     AR7
006C D006              POP     AR6
006E D0D0              POP     PSW
0070 D082              POP     DPL
0072 D083              POP     DPH
C51 COMPILER V9.54   INTERRUPT                                                             11/08/2018 15:11:09 PAGE 17  

0074 D0E0              POP     ACC
0076 32                RETI    
             ; FUNCTION TIMER5Interrupt (END)

             ; FUNCTION TIMER6Interrupt (BEGIN)
0000 C0E0              PUSH    ACC
0002 C083              PUSH    DPH
0004 C082              PUSH    DPL
0006 C0D0              PUSH    PSW
0008 75D000            MOV     PSW,#00H
000B C006              PUSH    AR6
000D C007              PUSH    AR7
                                           ; SOURCE LINE # 188
                                           ; SOURCE LINE # 191
000F 90E0F9            MOV     DPTR,#0E0F9H
0012 E0                MOVX    A,@DPTR
0013 FF                MOV     R7,A
0014 EF                MOV     A,R7
0015 547F              ANL     A,#07FH
0017 FF                MOV     R7,A
0018 EF                MOV     A,R7
0019 F0                MOVX    @DPTR,A
                                           ; SOURCE LINE # 192
001A 90E0F9            MOV     DPTR,#0E0F9H
001D E0                MOVX    A,@DPTR
001E FF                MOV     R7,A
001F EF                MOV     A,R7
0020 54BF              ANL     A,#0BFH
0022 FF                MOV     R7,A
0023 EF                MOV     A,R7
0024 F0                MOVX    @DPTR,A
                                           ; SOURCE LINE # 194
0025 E5FD              MOV     A,INT_REG3
0027 30E304            JNB     ACC.3,?C0056
002A 7F01              MOV     R7,#01H
002C 8002              SJMP    ?C0057
002E         ?C0056:
002E 7F00              MOV     R7,#00H
0030         ?C0057:
0030 EF                MOV     A,R7
0031 7051              JNZ     ?C0055
0033 E5FD              MOV     A,INT_REG3
0035 30E404            JNB     ACC.4,?C0058
0038 7F01              MOV     R7,#01H
003A 8002              SJMP    ?C0059
003C         ?C0058:
003C 7F00              MOV     R7,#00H
003E         ?C0059:
003E EF                MOV     A,R7
003F 7043              JNZ     ?C0055
0041 E5FD              MOV     A,INT_REG3
0043 30E504            JNB     ACC.5,?C0060
0046 7F01              MOV     R7,#01H
0048 8002              SJMP    ?C0061
004A         ?C0060:
004A 7F00              MOV     R7,#00H
004C         ?C0061:
004C EF                MOV     A,R7
004D 7035              JNZ     ?C0055
004F 90E0F9            MOV     DPTR,#0E0F9H
0052 E0                MOVX    A,@DPTR
0053 FF                MOV     R7,A
C51 COMPILER V9.54   INTERRUPT                                                             11/08/2018 15:11:09 PAGE 18  

0054 EF                MOV     A,R7
0055 C4                SWAP    A
0056 13                RRC     A
0057 13                RRC     A
0058 5403              ANL     A,#03H
005A FF                MOV     R7,A
005B EF                MOV     A,R7
005C 30E004            JNB     ACC.0,?C0062
005F 7F01              MOV     R7,#01H
0061 8002              SJMP    ?C0063
0063         ?C0062:
0063 7F00              MOV     R7,#00H
0065         ?C0063:
0065 90E0F9            MOV     DPTR,#0E0F9H
0068 E0                MOVX    A,@DPTR
0069 FE                MOV     R6,A
006A EE                MOV     A,R6
006B C4                SWAP    A
006C 13                RRC     A
006D 13                RRC     A
006E 13                RRC     A
006F 5401              ANL     A,#01H
0071 FE                MOV     R6,A
0072 EE                MOV     A,R6
0073 30E004            JNB     ACC.0,?C0064
0076 7E01              MOV     R6,#01H
0078 8002              SJMP    ?C0065
007A         ?C0064:
007A 7E00              MOV     R6,#00H
007C         ?C0065:
007C EE                MOV     A,R6
007D 4F                ORL     A,R7
007E FF                MOV     R7,A
007F EF                MOV     A,R7
0080 7002              JNZ     ?C0055
                                           ; SOURCE LINE # 195
0082 C2C4              CLR     IEX5
0084         ?C0055:
                                           ; SOURCE LINE # 196
0084 B2A6              CPL     P26
                                           ; SOURCE LINE # 198
0086         ?C0066:
0086 D007              POP     AR7
0088 D006              POP     AR6
008A D0D0              POP     PSW
008C D082              POP     DPL
008E D083              POP     DPH
0090 D0E0              POP     ACC
0092 32                RETI    
             ; FUNCTION TIMER6Interrupt (END)

             ; FUNCTION ePWM123Interrupt (BEGIN)
0000 C0E0              PUSH    ACC
0002 C0D0              PUSH    PSW
0004 75D000            MOV     PSW,#00H
0007 C007              PUSH    AR7
                                           ; SOURCE LINE # 205
                                           ; SOURCE LINE # 207
0009 E5B5              MOV     A,P1ETFLG
000B 30E004            JNB     ACC.0,?C0068
000E 7F01              MOV     R7,#01H
0010 8002              SJMP    ?C0069
C51 COMPILER V9.54   INTERRUPT                                                             11/08/2018 15:11:09 PAGE 19  

0012         ?C0068:
0012 7F00              MOV     R7,#00H
0014         ?C0069:
0014 EF                MOV     A,R7
0015 B40103            CJNE    A,#01H,?C0067
                                           ; SOURCE LINE # 208
                                           ; SOURCE LINE # 212
0018 43B601            ORL     P1ETCLR,#01H
                                           ; SOURCE LINE # 213
001B         ?C0067:
                                           ; SOURCE LINE # 216
001B E5CD              MOV     A,P2ETFLG
001D 30E004            JNB     ACC.0,?C0071
0020 7F01              MOV     R7,#01H
0022 8002              SJMP    ?C0072
0024         ?C0071:
0024 7F00              MOV     R7,#00H
0026         ?C0072:
0026 EF                MOV     A,R7
0027 B40103            CJNE    A,#01H,?C0070
                                           ; SOURCE LINE # 217
                                           ; SOURCE LINE # 223
002A 43CE01            ORL     P2ETCLR,#01H
                                           ; SOURCE LINE # 224
002D         ?C0070:
                                           ; SOURCE LINE # 227
002D E5DD              MOV     A,P3ETFLG
002F 30E004            JNB     ACC.0,?C0074
0032 7F01              MOV     R7,#01H
0034 8002              SJMP    ?C0075
0036         ?C0074:
0036 7F00              MOV     R7,#00H
0038         ?C0075:
0038 EF                MOV     A,R7
0039 B40103            CJNE    A,#01H,?C0073
                                           ; SOURCE LINE # 228
                                           ; SOURCE LINE # 230
003C 43DE01            ORL     P3ETCLR,#01H
                                           ; SOURCE LINE # 231
003F         ?C0073:
                                           ; SOURCE LINE # 233
003F E5B5              MOV     A,P1ETFLG
0041 30E004            JNB     ACC.0,?C0077
0044 7F01              MOV     R7,#01H
0046 8002              SJMP    ?C0078
0048         ?C0077:
0048 7F00              MOV     R7,#00H
004A         ?C0078:
004A EF                MOV     A,R7
004B 701E              JNZ     ?C0083
004D E5CD              MOV     A,P2ETFLG
004F 30E004            JNB     ACC.0,?C0079
0052 7F01              MOV     R7,#01H
0054 8002              SJMP    ?C0080
0056         ?C0079:
0056 7F00              MOV     R7,#00H
0058         ?C0080:
0058 EF                MOV     A,R7
0059 7010              JNZ     ?C0083
005B E5DD              MOV     A,P3ETFLG
005D 30E004            JNB     ACC.0,?C0081
0060 7F01              MOV     R7,#01H
C51 COMPILER V9.54   INTERRUPT                                                             11/08/2018 15:11:09 PAGE 20  

0062 8002              SJMP    ?C0082
0064         ?C0081:
0064 7F00              MOV     R7,#00H
0066         ?C0082:
0066 EF                MOV     A,R7
0067 7002              JNZ     ?C0083
                                           ; SOURCE LINE # 234
0069 C2C1              CLR     IEX2
006B         ?C0076:
                                           ; SOURCE LINE # 236
006B         ?C0083:
006B D007              POP     AR7
006D D0D0              POP     PSW
006F D0E0              POP     ACC
0071 32                RETI    
             ; FUNCTION ePWM123Interrupt (END)

             ; FUNCTION ePWM4Interrupt (BEGIN)
0000 C0E0              PUSH    ACC
0002 C083              PUSH    DPH
0004 C082              PUSH    DPL
0006 C0D0              PUSH    PSW
0008 75D000            MOV     PSW,#00H
000B C006              PUSH    AR6
000D C007              PUSH    AR7
                                           ; SOURCE LINE # 239
                                           ; SOURCE LINE # 242
000F 43F601            ORL     P4ETCLR,#01H
                                           ; SOURCE LINE # 244
0012 90E0F3            MOV     DPTR,#0E0F3H
0015 E0                MOVX    A,@DPTR
0016 FF                MOV     R7,A
0017 EF                MOV     A,R7
0018 C4                SWAP    A
0019 13                RRC     A
001A 13                RRC     A
001B 5403              ANL     A,#03H
001D FF                MOV     R7,A
001E EF                MOV     A,R7
001F 30E004            JNB     ACC.0,?C0085
0022 7F01              MOV     R7,#01H
0024 8002              SJMP    ?C0086
0026         ?C0085:
0026 7F00              MOV     R7,#00H
0028         ?C0086:
0028 90E0F3            MOV     DPTR,#0E0F3H
002B E0                MOVX    A,@DPTR
002C FE                MOV     R6,A
002D EE                MOV     A,R6
002E C4                SWAP    A
002F 13                RRC     A
0030 13                RRC     A
0031 13                RRC     A
0032 5401              ANL     A,#01H
0034 FE                MOV     R6,A
0035 EE                MOV     A,R6
0036 30E004            JNB     ACC.0,?C0087
0039 7E01              MOV     R6,#01H
003B 8002              SJMP    ?C0088
003D         ?C0087:
003D 7E00              MOV     R6,#00H
003F         ?C0088:
C51 COMPILER V9.54   INTERRUPT                                                             11/08/2018 15:11:09 PAGE 21  

003F EE                MOV     A,R6
0040 4F                ORL     A,R7
0041 FF                MOV     R7,A
0042 EF                MOV     A,R7
0043 7010              JNZ     ?C0091
0045 E5F5              MOV     A,P4ETFLG
0047 30E004            JNB     ACC.0,?C0089
004A 7F01              MOV     R7,#01H
004C 8002              SJMP    ?C0090
004E         ?C0089:
004E 7F00              MOV     R7,#00H
0050         ?C0090:
0050 EF                MOV     A,R7
0051 7002              JNZ     ?C0091
                                           ; SOURCE LINE # 245
0053 C2C2              CLR     IEX3
0055         ?C0084:
                                           ; SOURCE LINE # 247
0055         ?C0091:
0055 D007              POP     AR7
0057 D006              POP     AR6
0059 D0D0              POP     PSW
005B D082              POP     DPL
005D D083              POP     DPH
005F D0E0              POP     ACC
0061 32                RETI    
             ; FUNCTION ePWM4Interrupt (END)

             ; FUNCTION Comp1Interrupt (BEGIN)
0000 C0E0              PUSH    ACC
0002 C083              PUSH    DPH
0004 C082              PUSH    DPL
0006 C0D0              PUSH    PSW
0008 75D000            MOV     PSW,#00H
000B C007              PUSH    AR7
                                           ; SOURCE LINE # 255
                                           ; SOURCE LINE # 261
000D 90E0C7            MOV     DPTR,#0E0C7H
0010 E0                MOVX    A,@DPTR
0011 FF                MOV     R7,A
0012 EF                MOV     A,R7
0013 54FE              ANL     A,#0FEH
0015 FF                MOV     R7,A
0016 EF                MOV     A,R7
0017 F0                MOVX    @DPTR,A
                                           ; SOURCE LINE # 263
0018 E5F9              MOV     A,INT_REG1
001A 30E404            JNB     ACC.4,?C0093
001D 7F01              MOV     R7,#01H
001F 8002              SJMP    ?C0094
0021         ?C0093:
0021 7F00              MOV     R7,#00H
0023         ?C0094:
0023 EF                MOV     A,R7
0024 7010              JNZ     ?C0097
0026 E5F9              MOV     A,INT_REG1
0028 30E504            JNB     ACC.5,?C0095
002B 7F01              MOV     R7,#01H
002D 8002              SJMP    ?C0096
002F         ?C0095:
002F 7F00              MOV     R7,#00H
0031         ?C0096:
C51 COMPILER V9.54   INTERRUPT                                                             11/08/2018 15:11:09 PAGE 22  

0031 EF                MOV     A,R7
0032 7002              JNZ     ?C0097
                                           ; SOURCE LINE # 264
0034 C28B              CLR     IE1
0036         ?C0092:
                                           ; SOURCE LINE # 265
0036         ?C0097:
0036 D007              POP     AR7
0038 D0D0              POP     PSW
003A D082              POP     DPL
003C D083              POP     DPH
003E D0E0              POP     ACC
0040 32                RETI    
             ; FUNCTION Comp1Interrupt (END)

             ; FUNCTION Comp234Interrupt (BEGIN)
0000 C0E0              PUSH    ACC
0002 C083              PUSH    DPH
0004 C082              PUSH    DPL
0006 C0D0              PUSH    PSW
0008 75D000            MOV     PSW,#00H
000B C007              PUSH    AR7
                                           ; SOURCE LINE # 268
                                           ; SOURCE LINE # 273
000D 90E0C7            MOV     DPTR,#0E0C7H
0010 E0                MOVX    A,@DPTR
0011 FF                MOV     R7,A
0012 EF                MOV     A,R7
0013 C3                CLR     C
0014 13                RRC     A
0015 FF                MOV     R7,A
0016 EF                MOV     A,R7
0017 30E00B            JNB     ACC.0,?C0098
                                           ; SOURCE LINE # 275
                                           ; SOURCE LINE # 279
001A 90E0C7            MOV     DPTR,#0E0C7H
001D E0                MOVX    A,@DPTR
001E FF                MOV     R7,A
001F EF                MOV     A,R7
0020 54FD              ANL     A,#0FDH
0022 FF                MOV     R7,A
0023 EF                MOV     A,R7
0024 F0                MOVX    @DPTR,A
                                           ; SOURCE LINE # 285
0025         ?C0098:
                                           ; SOURCE LINE # 287
0025 90E0C7            MOV     DPTR,#0E0C7H
0028 E0                MOVX    A,@DPTR
0029 FF                MOV     R7,A
002A EF                MOV     A,R7
002B 13                RRC     A
002C 13                RRC     A
002D 543F              ANL     A,#03FH
002F FF                MOV     R7,A
0030 EF                MOV     A,R7
0031 30E00B            JNB     ACC.0,?C0099
                                           ; SOURCE LINE # 289
                                           ; SOURCE LINE # 291
0034 90E0C7            MOV     DPTR,#0E0C7H
0037 E0                MOVX    A,@DPTR
0038 FF                MOV     R7,A
0039 EF                MOV     A,R7
C51 COMPILER V9.54   INTERRUPT                                                             11/08/2018 15:11:09 PAGE 23  

003A 54FB              ANL     A,#0FBH
003C FF                MOV     R7,A
003D EF                MOV     A,R7
003E F0                MOVX    @DPTR,A
                                           ; SOURCE LINE # 293
003F         ?C0099:
                                           ; SOURCE LINE # 295
003F 90E0C7            MOV     DPTR,#0E0C7H
0042 E0                MOVX    A,@DPTR
0043 FF                MOV     R7,A
0044 EF                MOV     A,R7
0045 13                RRC     A
0046 13                RRC     A
0047 13                RRC     A
0048 541F              ANL     A,#01FH
004A FF                MOV     R7,A
004B EF                MOV     A,R7
004C 30E00B            JNB     ACC.0,?C0100
                                           ; SOURCE LINE # 297
                                           ; SOURCE LINE # 299
004F 90E0C7            MOV     DPTR,#0E0C7H
0052 E0                MOVX    A,@DPTR
0053 FF                MOV     R7,A
0054 EF                MOV     A,R7
0055 54F7              ANL     A,#0F7H
0057 FF                MOV     R7,A
0058 EF                MOV     A,R7
0059 F0                MOVX    @DPTR,A
                                           ; SOURCE LINE # 302
005A         ?C0100:
                                           ; SOURCE LINE # 304
005A 90E0C7            MOV     DPTR,#0E0C7H
005D E0                MOVX    A,@DPTR
005E FF                MOV     R7,A
005F EF                MOV     A,R7
0060 C3                CLR     C
0061 13                RRC     A
0062 FF                MOV     R7,A
0063 EF                MOV     A,R7
0064 20E021            JB      ACC.0,?C0102
0067 90E0C7            MOV     DPTR,#0E0C7H
006A E0                MOVX    A,@DPTR
006B FF                MOV     R7,A
006C EF                MOV     A,R7
006D 13                RRC     A
006E 13                RRC     A
006F 543F              ANL     A,#03FH
0071 FF                MOV     R7,A
0072 EF                MOV     A,R7
0073 20E012            JB      ACC.0,?C0102
0076 90E0C7            MOV     DPTR,#0E0C7H
0079 E0                MOVX    A,@DPTR
007A FF                MOV     R7,A
007B EF                MOV     A,R7
007C 13                RRC     A
007D 13                RRC     A
007E 13                RRC     A
007F 541F              ANL     A,#01FH
0081 FF                MOV     R7,A
0082 EF                MOV     A,R7
0083 20E002            JB      ACC.0,?C0102
                                           ; SOURCE LINE # 305
C51 COMPILER V9.54   INTERRUPT                                                             11/08/2018 15:11:09 PAGE 24  

0086 C2C3              CLR     IEX4
0088         ?C0101:
                                           ; SOURCE LINE # 307
0088         ?C0102:
0088 D007              POP     AR7
008A D0D0              POP     PSW
008C D082              POP     DPL
008E D083              POP     DPH
0090 D0E0              POP     ACC
0092 32                RETI    
             ; FUNCTION Comp234Interrupt (END)

             ; FUNCTION I2CInterrupt (BEGIN)
0000 C0E0              PUSH    ACC
0002 C083              PUSH    DPH
0004 C082              PUSH    DPL
0006 C0D0              PUSH    PSW
0008 75D000            MOV     PSW,#00H
000B C006              PUSH    AR6
000D C007              PUSH    AR7
                                           ; SOURCE LINE # 313
                                           ; SOURCE LINE # 318
000F E5FD              MOV     A,INT_REG3
0011 30E304            JNB     ACC.3,?C0104
0014 7F01              MOV     R7,#01H
0016 8002              SJMP    ?C0105
0018         ?C0104:
0018 7F00              MOV     R7,#00H
001A         ?C0105:
001A EF                MOV     A,R7
001B 7051              JNZ     ?C0114
001D E5FD              MOV     A,INT_REG3
001F 30E404            JNB     ACC.4,?C0106
0022 7F01              MOV     R7,#01H
0024 8002              SJMP    ?C0107
0026         ?C0106:
0026 7F00              MOV     R7,#00H
0028         ?C0107:
0028 EF                MOV     A,R7
0029 7043              JNZ     ?C0114
002B E5FD              MOV     A,INT_REG3
002D 30E504            JNB     ACC.5,?C0108
0030 7F01              MOV     R7,#01H
0032 8002              SJMP    ?C0109
0034         ?C0108:
0034 7F00              MOV     R7,#00H
0036         ?C0109:
0036 EF                MOV     A,R7
0037 7035              JNZ     ?C0114
0039 90E0F9            MOV     DPTR,#0E0F9H
003C E0                MOVX    A,@DPTR
003D FF                MOV     R7,A
003E EF                MOV     A,R7
003F C4                SWAP    A
0040 13                RRC     A
0041 13                RRC     A
0042 5403              ANL     A,#03H
0044 FF                MOV     R7,A
0045 EF                MOV     A,R7
0046 30E004            JNB     ACC.0,?C0110
0049 7F01              MOV     R7,#01H
004B 8002              SJMP    ?C0111
C51 COMPILER V9.54   INTERRUPT                                                             11/08/2018 15:11:09 PAGE 25  

004D         ?C0110:
004D 7F00              MOV     R7,#00H
004F         ?C0111:
004F 90E0F9            MOV     DPTR,#0E0F9H
0052 E0                MOVX    A,@DPTR
0053 FE                MOV     R6,A
0054 EE                MOV     A,R6
0055 C4                SWAP    A
0056 13                RRC     A
0057 13                RRC     A
0058 13                RRC     A
0059 5401              ANL     A,#01H
005B FE                MOV     R6,A
005C EE                MOV     A,R6
005D 30E004            JNB     ACC.0,?C0112
0060 7E01              MOV     R6,#01H
0062 8002              SJMP    ?C0113
0064         ?C0112:
0064 7E00              MOV     R6,#00H
0066         ?C0113:
0066 EE                MOV     A,R6
0067 4F                ORL     A,R7
0068 FF                MOV     R7,A
0069 EF                MOV     A,R7
006A 7002              JNZ     ?C0114
                                           ; SOURCE LINE # 319
006C C2C4              CLR     IEX5
006E         ?C0103:
                                           ; SOURCE LINE # 320
006E         ?C0114:
006E D007              POP     AR7
0070 D006              POP     AR6
0072 D0D0              POP     PSW
0074 D082              POP     DPL
0076 D083              POP     DPH
0078 D0E0              POP     ACC
007A 32                RETI    
             ; FUNCTION I2CInterrupt (END)

             ; FUNCTION SPIInterrupt (BEGIN)
0000 C0E0              PUSH    ACC
0002 C083              PUSH    DPH
0004 C082              PUSH    DPL
0006 C0D0              PUSH    PSW
0008 75D000            MOV     PSW,#00H
000B C006              PUSH    AR6
000D C007              PUSH    AR7
                                           ; SOURCE LINE # 322
                                           ; SOURCE LINE # 326
000F E5FD              MOV     A,INT_REG3
0011 30E304            JNB     ACC.3,?C0116
0014 7F01              MOV     R7,#01H
0016 8002              SJMP    ?C0117
0018         ?C0116:
0018 7F00              MOV     R7,#00H
001A         ?C0117:
001A EF                MOV     A,R7
001B 7051              JNZ     ?C0126
001D E5FD              MOV     A,INT_REG3
001F 30E404            JNB     ACC.4,?C0118
0022 7F01              MOV     R7,#01H
0024 8002              SJMP    ?C0119
C51 COMPILER V9.54   INTERRUPT                                                             11/08/2018 15:11:09 PAGE 26  

0026         ?C0118:
0026 7F00              MOV     R7,#00H
0028         ?C0119:
0028 EF                MOV     A,R7
0029 7043              JNZ     ?C0126
002B E5FD              MOV     A,INT_REG3
002D 30E504            JNB     ACC.5,?C0120
0030 7F01              MOV     R7,#01H
0032 8002              SJMP    ?C0121
0034         ?C0120:
0034 7F00              MOV     R7,#00H
0036         ?C0121:
0036 EF                MOV     A,R7
0037 7035              JNZ     ?C0126
0039 90E0F9            MOV     DPTR,#0E0F9H
003C E0                MOVX    A,@DPTR
003D FF                MOV     R7,A
003E EF                MOV     A,R7
003F C4                SWAP    A
0040 13                RRC     A
0041 13                RRC     A
0042 5403              ANL     A,#03H
0044 FF                MOV     R7,A
0045 EF                MOV     A,R7
0046 30E004            JNB     ACC.0,?C0122
0049 7F01              MOV     R7,#01H
004B 8002              SJMP    ?C0123
004D         ?C0122:
004D 7F00              MOV     R7,#00H
004F         ?C0123:
004F 90E0F9            MOV     DPTR,#0E0F9H
0052 E0                MOVX    A,@DPTR
0053 FE                MOV     R6,A
0054 EE                MOV     A,R6
0055 C4                SWAP    A
0056 13                RRC     A
0057 13                RRC     A
0058 13                RRC     A
0059 5401              ANL     A,#01H
005B FE                MOV     R6,A
005C EE                MOV     A,R6
005D 30E004            JNB     ACC.0,?C0124
0060 7E01              MOV     R6,#01H
0062 8002              SJMP    ?C0125
0064         ?C0124:
0064 7E00              MOV     R6,#00H
0066         ?C0125:
0066 EE                MOV     A,R6
0067 4F                ORL     A,R7
0068 FF                MOV     R7,A
0069 EF                MOV     A,R7
006A 7002              JNZ     ?C0126
                                           ; SOURCE LINE # 327
006C C2C4              CLR     IEX5
006E         ?C0115:
                                           ; SOURCE LINE # 328
006E         ?C0126:
006E D007              POP     AR7
0070 D006              POP     AR6
0072 D0D0              POP     PSW
0074 D082              POP     DPL
0076 D083              POP     DPH
C51 COMPILER V9.54   INTERRUPT                                                             11/08/2018 15:11:09 PAGE 27  

0078 D0E0              POP     ACC
007A 32                RETI    
             ; FUNCTION SPIInterrupt (END)

             ; FUNCTION eFlashInterrupt (BEGIN)
0000 C0E0              PUSH    ACC
0002 C083              PUSH    DPH
0004 C082              PUSH    DPL
0006 C0D0              PUSH    PSW
0008 75D000            MOV     PSW,#00H
000B C006              PUSH    AR6
000D C007              PUSH    AR7
                                           ; SOURCE LINE # 330
                                           ; SOURCE LINE # 334
000F E5FD              MOV     A,INT_REG3
0011 30E304            JNB     ACC.3,?C0128
0014 7F01              MOV     R7,#01H
0016 8002              SJMP    ?C0129
0018         ?C0128:
0018 7F00              MOV     R7,#00H
001A         ?C0129:
001A EF                MOV     A,R7
001B 7051              JNZ     ?C0138
001D E5FD              MOV     A,INT_REG3
001F 30E404            JNB     ACC.4,?C0130
0022 7F01              MOV     R7,#01H
0024 8002              SJMP    ?C0131
0026         ?C0130:
0026 7F00              MOV     R7,#00H
0028         ?C0131:
0028 EF                MOV     A,R7
0029 7043              JNZ     ?C0138
002B E5FD              MOV     A,INT_REG3
002D 30E504            JNB     ACC.5,?C0132
0030 7F01              MOV     R7,#01H
0032 8002              SJMP    ?C0133
0034         ?C0132:
0034 7F00              MOV     R7,#00H
0036         ?C0133:
0036 EF                MOV     A,R7
0037 7035              JNZ     ?C0138
0039 90E0F9            MOV     DPTR,#0E0F9H
003C E0                MOVX    A,@DPTR
003D FF                MOV     R7,A
003E EF                MOV     A,R7
003F C4                SWAP    A
0040 13                RRC     A
0041 13                RRC     A
0042 5403              ANL     A,#03H
0044 FF                MOV     R7,A
0045 EF                MOV     A,R7
0046 30E004            JNB     ACC.0,?C0134
0049 7F01              MOV     R7,#01H
004B 8002              SJMP    ?C0135
004D         ?C0134:
004D 7F00              MOV     R7,#00H
004F         ?C0135:
004F 90E0F9            MOV     DPTR,#0E0F9H
0052 E0                MOVX    A,@DPTR
0053 FE                MOV     R6,A
0054 EE                MOV     A,R6
0055 C4                SWAP    A
C51 COMPILER V9.54   INTERRUPT                                                             11/08/2018 15:11:09 PAGE 28  

0056 13                RRC     A
0057 13                RRC     A
0058 13                RRC     A
0059 5401              ANL     A,#01H
005B FE                MOV     R6,A
005C EE                MOV     A,R6
005D 30E004            JNB     ACC.0,?C0136
0060 7E01              MOV     R6,#01H
0062 8002              SJMP    ?C0137
0064         ?C0136:
0064 7E00              MOV     R6,#00H
0066         ?C0137:
0066 EE                MOV     A,R6
0067 4F                ORL     A,R7
0068 FF                MOV     R7,A
0069 EF                MOV     A,R7
006A 7002              JNZ     ?C0138
                                           ; SOURCE LINE # 335
006C C2C4              CLR     IEX5
006E         ?C0127:
                                           ; SOURCE LINE # 336
006E         ?C0138:
006E D007              POP     AR7
0070 D006              POP     AR6
0072 D0D0              POP     PSW
0074 D082              POP     DPL
0076 D083              POP     DPH
0078 D0E0              POP     ACC
007A 32                RETI    
             ; FUNCTION eFlashInterrupt (END)

             ; FUNCTION RTCInterrupt (BEGIN)
0000 C0E0              PUSH    ACC
0002 C0D0              PUSH    PSW
0004 75D000            MOV     PSW,#00H
0007 C007              PUSH    AR7
                                           ; SOURCE LINE # 341
                                           ; SOURCE LINE # 346
0009 53FEFE            ANL     INT_REG4,#0FEH
                                           ; SOURCE LINE # 347
000C E5FE              MOV     A,INT_REG4
000E 30E004            JNB     ACC.0,?C0140
0011 7F01              MOV     R7,#01H
0013 8002              SJMP    ?C0141
0015         ?C0140:
0015 7F00              MOV     R7,#00H
0017         ?C0141:
0017 EF                MOV     A,R7
0018 703A              JNZ     ?C0150
001A E5FE              MOV     A,INT_REG4
001C 30E104            JNB     ACC.1,?C0142
001F 7F01              MOV     R7,#01H
0021 8002              SJMP    ?C0143
0023         ?C0142:
0023 7F00              MOV     R7,#00H
0025         ?C0143:
0025 EF                MOV     A,R7
0026 702C              JNZ     ?C0150
0028 E5FE              MOV     A,INT_REG4
002A 30E204            JNB     ACC.2,?C0144
002D 7F01              MOV     R7,#01H
002F 8002              SJMP    ?C0145
C51 COMPILER V9.54   INTERRUPT                                                             11/08/2018 15:11:09 PAGE 29  

0031         ?C0144:
0031 7F00              MOV     R7,#00H
0033         ?C0145:
0033 EF                MOV     A,R7
0034 701E              JNZ     ?C0150
0036 E5FE              MOV     A,INT_REG4
0038 30E304            JNB     ACC.3,?C0146
003B 7F01              MOV     R7,#01H
003D 8002              SJMP    ?C0147
003F         ?C0146:
003F 7F00              MOV     R7,#00H
0041         ?C0147:
0041 EF                MOV     A,R7
0042 7010              JNZ     ?C0150
0044 E593              MOV     A,BPCTRL
0046 30E704            JNB     ACC.7,?C0148
0049 7F01              MOV     R7,#01H
004B 8002              SJMP    ?C0149
004D         ?C0148:
004D 7F00              MOV     R7,#00H
004F         ?C0149:
004F EF                MOV     A,R7
0050 7002              JNZ     ?C0150
                                           ; SOURCE LINE # 348
0052 C2C5              CLR     IEX6
0054         ?C0139:
                                           ; SOURCE LINE # 351
0054         ?C0150:
0054 D007              POP     AR7
0056 D0D0              POP     PSW
0058 D0E0              POP     ACC
005A 32                RETI    
             ; FUNCTION RTCInterrupt (END)

             ; FUNCTION LDV18Interrupt (BEGIN)
0000 C0E0              PUSH    ACC
0002 C0D0              PUSH    PSW
0004 75D000            MOV     PSW,#00H
0007 C007              PUSH    AR7
                                           ; SOURCE LINE # 354
                                           ; SOURCE LINE # 357
0009 53FEFC            ANL     INT_REG4,#0FCH
                                           ; SOURCE LINE # 358
000C E5FE              MOV     A,INT_REG4
000E 30E004            JNB     ACC.0,?C0152
0011 7F01              MOV     R7,#01H
0013 8002              SJMP    ?C0153
0015         ?C0152:
0015 7F00              MOV     R7,#00H
0017         ?C0153:
0017 EF                MOV     A,R7
0018 703A              JNZ     ?C0162
001A E5FE              MOV     A,INT_REG4
001C 30E104            JNB     ACC.1,?C0154
001F 7F01              MOV     R7,#01H
0021 8002              SJMP    ?C0155
0023         ?C0154:
0023 7F00              MOV     R7,#00H
0025         ?C0155:
0025 EF                MOV     A,R7
0026 702C              JNZ     ?C0162
0028 E5FE              MOV     A,INT_REG4
C51 COMPILER V9.54   INTERRUPT                                                             11/08/2018 15:11:09 PAGE 30  

002A 30E204            JNB     ACC.2,?C0156
002D 7F01              MOV     R7,#01H
002F 8002              SJMP    ?C0157
0031         ?C0156:
0031 7F00              MOV     R7,#00H
0033         ?C0157:
0033 EF                MOV     A,R7
0034 701E              JNZ     ?C0162
0036 E5FE              MOV     A,INT_REG4
0038 30E304            JNB     ACC.3,?C0158
003B 7F01              MOV     R7,#01H
003D 8002              SJMP    ?C0159
003F         ?C0158:
003F 7F00              MOV     R7,#00H
0041         ?C0159:
0041 EF                MOV     A,R7
0042 7010              JNZ     ?C0162
0044 E593              MOV     A,BPCTRL
0046 30E704            JNB     ACC.7,?C0160
0049 7F01              MOV     R7,#01H
004B 8002              SJMP    ?C0161
004D         ?C0160:
004D 7F00              MOV     R7,#00H
004F         ?C0161:
004F EF                MOV     A,R7
0050 7002              JNZ     ?C0162
                                           ; SOURCE LINE # 359
0052 C2C5              CLR     IEX6
0054         ?C0151:
                                           ; SOURCE LINE # 362
0054         ?C0162:
0054 D007              POP     AR7
0056 D0D0              POP     PSW
0058 D0E0              POP     ACC
005A 32                RETI    
             ; FUNCTION LDV18Interrupt (END)

             ; FUNCTION LDV33Interrupt (BEGIN)
0000 C0E0              PUSH    ACC
0002 C0D0              PUSH    PSW
0004 75D000            MOV     PSW,#00H
0007 C007              PUSH    AR7
                                           ; SOURCE LINE # 364
                                           ; SOURCE LINE # 367
0009 53FEF8            ANL     INT_REG4,#0F8H
                                           ; SOURCE LINE # 369
000C E5FE              MOV     A,INT_REG4
000E 30E004            JNB     ACC.0,?C0164
0011 7F01              MOV     R7,#01H
0013 8002              SJMP    ?C0165
0015         ?C0164:
0015 7F00              MOV     R7,#00H
0017         ?C0165:
0017 EF                MOV     A,R7
0018 703A              JNZ     ?C0174
001A E5FE              MOV     A,INT_REG4
001C 30E104            JNB     ACC.1,?C0166
001F 7F01              MOV     R7,#01H
0021 8002              SJMP    ?C0167
0023         ?C0166:
0023 7F00              MOV     R7,#00H
0025         ?C0167:
C51 COMPILER V9.54   INTERRUPT                                                             11/08/2018 15:11:09 PAGE 31  

0025 EF                MOV     A,R7
0026 702C              JNZ     ?C0174
0028 E5FE              MOV     A,INT_REG4
002A 30E204            JNB     ACC.2,?C0168
002D 7F01              MOV     R7,#01H
002F 8002              SJMP    ?C0169
0031         ?C0168:
0031 7F00              MOV     R7,#00H
0033         ?C0169:
0033 EF                MOV     A,R7
0034 701E              JNZ     ?C0174
0036 E5FE              MOV     A,INT_REG4
0038 30E304            JNB     ACC.3,?C0170
003B 7F01              MOV     R7,#01H
003D 8002              SJMP    ?C0171
003F         ?C0170:
003F 7F00              MOV     R7,#00H
0041         ?C0171:
0041 EF                MOV     A,R7
0042 7010              JNZ     ?C0174
0044 E593              MOV     A,BPCTRL
0046 30E704            JNB     ACC.7,?C0172
0049 7F01              MOV     R7,#01H
004B 8002              SJMP    ?C0173
004D         ?C0172:
004D 7F00              MOV     R7,#00H
004F         ?C0173:
004F EF                MOV     A,R7
0050 7002              JNZ     ?C0174
                                           ; SOURCE LINE # 370
0052 C2C5              CLR     IEX6
0054         ?C0163:
                                           ; SOURCE LINE # 372
0054         ?C0174:
0054 D007              POP     AR7
0056 D0D0              POP     PSW
0058 D0E0              POP     ACC
005A 32                RETI    
             ; FUNCTION LDV33Interrupt (END)

             ; FUNCTION UART1Interrupt (BEGIN)
                                           ; SOURCE LINE # 381
                                           ; SOURCE LINE # 382
                                           ; SOURCE LINE # 383
0000 309802            JNB     RI0,?C0175
                                           ; SOURCE LINE # 384
                                           ; SOURCE LINE # 385
0003 C298              CLR     RI0
                                           ; SOURCE LINE # 386
0005         ?C0175:
                                           ; SOURCE LINE # 388
0005 309902            JNB     TI0,?C0177
                                           ; SOURCE LINE # 389
                                           ; SOURCE LINE # 390
0008 C299              CLR     TI0
                                           ; SOURCE LINE # 391
000A         ?C0176:
                                           ; SOURCE LINE # 392
000A         ?C0177:
000A 22                RET     
             ; FUNCTION UART1Interrupt (END)

C51 COMPILER V9.54   INTERRUPT                                                             11/08/2018 15:11:09 PAGE 32  

             ; FUNCTION UART2Interrupt (BEGIN)
0000 C0E0              PUSH    ACC
                                           ; SOURCE LINE # 394
                                           ; SOURCE LINE # 397
0002 E59B              MOV     A,S1CON
0004 30E003            JNB     ACC.0,?C0178
                                           ; SOURCE LINE # 398
                                           ; SOURCE LINE # 399
0007 539BFE            ANL     S1CON,#0FEH
                                           ; SOURCE LINE # 404
000A         ?C0178:
                                           ; SOURCE LINE # 407
000A E59B              MOV     A,S1CON
000C 30E103            JNB     ACC.1,?C0180
                                           ; SOURCE LINE # 408
                                           ; SOURCE LINE # 409
000F 539BFD            ANL     S1CON,#0FDH
                                           ; SOURCE LINE # 410
0012         ?C0179:
                                           ; SOURCE LINE # 411
0012         ?C0180:
0012 D0E0              POP     ACC
0014 32                RETI    
             ; FUNCTION UART2Interrupt (END)

             ; FUNCTION ADCInterrupt (BEGIN)
0000 C0E0              PUSH    ACC
0002 C083              PUSH    DPH
0004 C082              PUSH    DPL
0006 C0D0              PUSH    PSW
0008 75D000            MOV     PSW,#00H
000B C007              PUSH    AR7
                                           ; SOURCE LINE # 413
                                           ; SOURCE LINE # 417
000D 90E05B            MOV     DPTR,#0E05BH
0010 E0                MOVX    A,@DPTR
0011 FF                MOV     R7,A
0012 EF                MOV     A,R7
0013 30E00D            JNB     ACC.0,?C0181
                                           ; SOURCE LINE # 418
                                           ; SOURCE LINE # 419
0016 90E05B            MOV     DPTR,#0E05BH
0019 E0                MOVX    A,@DPTR
001A FF                MOV     R7,A
001B EF                MOV     A,R7
001C 54FE              ANL     A,#0FEH
001E FF                MOV     R7,A
001F EF                MOV     A,R7
0020 F0                MOVX    @DPTR,A
                                           ; SOURCE LINE # 420
0021 C2C0              CLR     IADC
                                           ; SOURCE LINE # 421
0023         ?C0181:
                                           ; SOURCE LINE # 423
0023 90E072            MOV     DPTR,#0E072H
0026 E0                MOVX    A,@DPTR
0027 F500        E     MOV     ADresult,A
0029 A3                INC     DPTR
002A E0                MOVX    A,@DPTR
002B F500        E     MOV     ADresult+01H,A
                                           ; SOURCE LINE # 426
002D         ?C0182:
C51 COMPILER V9.54   INTERRUPT                                                             11/08/2018 15:11:09 PAGE 33  

002D D007              POP     AR7
002F D0D0              POP     PSW
0031 D082              POP     DPL
0033 D083              POP     DPH
0035 D0E0              POP     ACC
0037 32                RETI    
             ; FUNCTION ADCInterrupt (END)



MODULE INFORMATION:   STATIC OVERLAYABLE
   CODE SIZE        =   2033    ----
   CONSTANT SIZE    =   ----    ----
   XDATA SIZE       =   ----    ----
   PDATA SIZE       =   ----    ----
   DATA SIZE        =   ----    ----
   IDATA SIZE       =   ----    ----
   BIT SIZE         =   ----    ----
END OF MODULE INFORMATION.


C51 COMPILATION COMPLETE.  0 WARNING(S),  0 ERROR(S)
