C51 COMPILER V9.54   INTERRUPT                                                             10/06/2018 17:27:39 PAGE 1   


C51 COMPILER V9.54, COMPILATION OF MODULE INTERRUPT
OBJECT MODULE PLACED IN .\OUTPUT\interrupt.obj
COMPILER INVOKED BY: C:\Keil_v5\C51\BIN\C51.EXE SRC\interrupt.c OPTIMIZE(0,SPEED) REGFILE(.\OUTPUT\motor.ORC) BROWSE INT
                    -VECTOR(0X2000) INCDIR(.\INC) DEBUG OBJECTEXTEND CODE PRINT(.\files\interrupt.lst) TABS(2) OBJECT(.\OUTPUT\interrupt.obj)

line level    source

   1          #include "register.h"
   2          #include <intrins.h>
   3          #include "app.h"
   4          #include "initial.h"
   5          
   6          
   7          /*interrupt number
   8           EXT1-4     0
   9           
  10           
  11          
  12           TIMER0     1
  13           TIMER1     3
  14           UART0      4
  15           ADC        8
  16           UART1      16
  17           
  18           COMP1      22
  19           TIMER3     23
  20           
  21           ePWM1-3    9
  22          
  23           ePMW4      20
  24           Timer5     21
  25           
  26           Timer6     24
  27           I2C        25
  28           SPI        26
  29           eFlash     27
  30           
  31           
  32          
  33          
  34          */
  35          
  36          
  37          void EXT1234Interrupt (void)  interrupt 0
  38          {
  39   1        
  40   1        if (EXT(1)==1)
  41   1        {
  42   2          
  43   2          CLR_EXT(1);
  44   2        }
  45   1        
  46   1        
  47   1        if (EXT(2)==1)  
  48   1        {
  49   2                P26=~P26;
  50   2          CLR_EXT(2);
  51   2        }
  52   1        
  53   1        
  54   1        if (EXT(3)==1)
C51 COMPILER V9.54   INTERRUPT                                                             10/06/2018 17:27:39 PAGE 2   

  55   1        {
  56   2          CLR_EXT(3);
  57   2        }
  58   1        
  59   1      
  60   1        if (EXT(4)==1)
  61   1        {
  62   2          
  63   2          CLR_EXT(4);
  64   2        }
  65   1        
  66   1        if ((EXT(1)==0)&&(EXT(2)==0)&&(EXT(3)==0)&&(EXT(4)==0))
  67   1          IE0=0;
  68   1      
  69   1      }
  70          
  71          
  72          
  73          
  74          
  75          
  76          
  77          /*  Timer interrupt   **/
  78          
  79          
  80          void TIMER0Interrupt(void)  interrupt 1
  81          {
  82   1       
  83   1          TF0=0;
  84   1        P26=~P26;
  85   1      
  86   1        
  87   1      
  88   1      
  89   1      }
  90          
  91          void TIMER1Interrupt(void)  interrupt 3
  92          {
  93   1        
  94   1        
  95   1        TF1=0;
  96   1      }
  97          
  98          void TIMER3Interrupt(void)  interrupt 23
  99          {
 100   1        CLR_T3_INT()  ;
 101   1        T3TF=0;
 102   1        T3EXF=0;
 103   1        
 104   1        P26= ~P26;
 105   1        
 106   1        if ((T3_INT==0)&&(CP1_INT==0))
 107   1          IE1=0;
 108   1      }
 109          
 110          void TIMER4Interrupt(void)  interrupt 17
 111          {
 112   1        
 113   1        
 114   1        
 115   1        T4TF=0;
 116   1      
C51 COMPILER V9.54   INTERRUPT                                                             10/06/2018 17:27:39 PAGE 3   

 117   1        CLR_T4_INT();
 118   1      
 119   1        
 120   1        P26= ~P26;
 121   1        
 122   1            if ((RTC_INT==0)&&(LDV18_INT==0)&&(LDV33_INT==0)&&(T4_INT==0)&&(BP_INT==0))
 123   1            IEX6=0;
 124   1            
 125   1        
 126   1        
 127   1      }
 128          
 129          void TIMER5Interrupt(void)  interrupt 21
 130          {
 131   1      
 132   1        T5TF=0;
 133   1        T5EXF=0;
 134   1      
 135   1        
 136   1        P26= ~P26;
 137   1        if ((T5_INT==0)&&(EPWM_INT(4)==0))
 138   1          IEX3=0;
 139   1        
 140   1        
 141   1      }
 142          void TIMER6Interrupt(void)  interrupt 24
 143          {
 144   1      
 145   1        T6TF=0;
 146   1        T6EXF=0;
 147   1        
 148   1        if ((I2C_INT==0)&&(SPI_INT==0)&&(EFLASH_INT==0)&&(T6_INT==0))
 149   1          IEX5=0;
 150   1        P26=~P26;
 151   1        
 152   1      }
 153          
 154          
 155          
 156          
 157          /*     EPWM interrupt */
 158          
 159          void ePWM123Interrupt(void) interrupt 9
 160          {
 161   1        if (EPWM_INT(1)==1)
 162   1        {
 163   2          
 164   2          
 165   2          
 166   2          CLR_EPWM_INT(1);
 167   2        }
 168   1      
 169   1        
 170   1        if (EPWM_INT(2)==1)
 171   1        {
 172   2          
 173   2          
 174   2          
 175   2          
 176   2          
 177   2          CLR_EPWM_INT(2);
 178   2        }
C51 COMPILER V9.54   INTERRUPT                                                             10/06/2018 17:27:39 PAGE 4   

 179   1        
 180   1        
 181   1        if (EPWM_INT(3)==1)
 182   1        {
 183   2          
 184   2          CLR_EPWM_INT(3);
 185   2        }
 186   1        
 187   1        if ((EPWM_INT(1)==0)&&(EPWM_INT(2)==0)&&(EPWM_INT(3)==0))
 188   1          IEX2=0;
 189   1        
 190   1      }
 191          
 192          
 193          void ePWM4Interrupt(void)  interrupt 20
 194          {
 195   1      
 196   1        
 197   1        CLR_EPWM_INT(4);
 198   1        if ((T5_INT==0)&&(EPWM_INT(4)==0))
 199   1            IEX3=0;
 200   1        
 201   1      }
 202          
 203          
 204          
 205          
 206          
 207          /* comparator interrupt */
 208          
 209          void Comp1Interrupt(void) interrupt 22
 210            
 211          {
 212   1        
 213   1        
 214   1        
 215   1        CLR_CP1_INT();    
 216   1        
 217   1        if ((T3_INT==0)&&(CP1_INT==0))
 218   1            IE1=0;
 219   1      }
 220          
 221          
 222          void  Comp234Interrupt(void) interrupt 11
 223          
 224          {
 225   1        
 226   1        
 227   1        if (CP2_INT==1)
 228   1      
 229   1          {
 230   2          
 231   2            CLR_CP2_INT();      
 232   2          }
 233   1          
 234   1          if (CP3_INT==1)
 235   1      
 236   1          {
 237   2          
 238   2              CLR_CP3_INT();      
 239   2          }
 240   1                
C51 COMPILER V9.54   INTERRUPT                                                             10/06/2018 17:27:39 PAGE 5   

 241   1          if (CP4_INT==1)
 242   1      
 243   1          {
 244   2          
 245   2            CLR_CP4_INT();      
 246   2          }
 247   1          
 248   1          if ((CP2_INT==0)&&(CP3_INT==0)&&(CP4_INT==0))
 249   1              IEX4=0;
 250   1            
 251   1        }
 252          
 253          
 254          
 255            /*  serial communication  */
 256          
 257          void I2CInterrupt(void)  interrupt 25
 258          {
 259   1      
 260   1        CLR_I2C_INT();
 261   1        
 262   1        if ((I2C_INT==0)&&(SPI_INT==0)&&(EFLASH_INT==0)&&(T6_INT==0))
 263   1          IEX5=0;
 264   1      }
 265          
 266          void SPIInterrupt(void)  interrupt 26
 267          {
 268   1      
 269   1        CLR_SPI_INT();
 270   1        if ((I2C_INT==0)&&(SPI_INT==0)&&(EFLASH_INT==0)&&(T6_INT==0))
 271   1          IEX5=0;
 272   1      }
 273          
 274          void eFlashInterrupt(void)  interrupt 27
 275          {
 276   1      
 277   1        CLR_EFLASH_INT();
 278   1        if ((I2C_INT==0)&&(SPI_INT==0)&&(EFLASH_INT==0)&&(T6_INT==0))
 279   1          IEX5=0;
 280   1      }
 281          
 282          
 283          /*  voltage detect, RTC  */
 284          
 285          void RTCInterrupt(void) interrupt 28
 286          {
 287   1        
 288   1        
 289   1        
 290   1        CLR_RTC_INT();
 291   1            if ((RTC_INT==0)&&(LDV18_INT==0)&&(LDV33_INT==0)&&(T4_INT==0)&&(BP_INT==0))
 292   1            IEX6=0;
 293   1            
 294   1        
 295   1      }
 296            
 297          
 298          void LDV18Interrupt(void) interrupt 29
 299          {
 300   1        
 301   1        CLR_LDV18_INT();
 302   1            if ((RTC_INT==0)&&(LDV18_INT==0)&&(LDV33_INT==0)&&(T4_INT==0)&&(BP_INT==0))
C51 COMPILER V9.54   INTERRUPT                                                             10/06/2018 17:27:39 PAGE 6   

 303   1            IEX6=0;
 304   1            
 305   1      
 306   1      }
 307          
 308          void LDV33Interrupt(void) interrupt 30
 309          {
 310   1        
 311   1        CLR_LDV33_INT();
 312   1        
 313   1            if ((RTC_INT==0)&&(LDV18_INT==0)&&(LDV33_INT==0)&&(T4_INT==0)&&(BP_INT==0))
 314   1            IEX6=0;
 315   1            
 316   1      }
 317          
 318          
 319          
 320          
 321          
 322          /* debug and UART port */
 323            
 324          
 325          void UART1Interrupt(void) //interrupt 4
 326          {
 327   1          if(RI0 == 1)
 328   1          {
 329   2              RI0 = 0;
 330   2          }
 331   1      
 332   1          if(TI0 == 1)
 333   1          {
 334   2             TI0 = 0;
 335   2          }
 336   1      }
 337          
 338          void UART2Interrupt(void) interrupt 16
 339          {
 340   1          //receive
 341   1          if((S1CON & 0x01) == 0x01)
 342   1          {
 343   2              S1CON &= 0xfe;
 344   2      //        ucUARTReceiver = S1BUF;
 345   2      //        ucUARTReceiver++;
 346   2      //        ucUARTReceiver++;
 347   2      //        ucReceiveFlag = 1;
 348   2          }
 349   1      
 350   1          //transmit
 351   1          if((S1CON & 0x02) == 0x02)
 352   1          {
 353   2              S1CON &= 0xfd;
 354   2          }
 355   1      }
 356          
 357          void ADCInterrupt(void) interrupt 8
 358          {
 359   1       
 360   1          if (INTFL==1)
 361   1          {
 362   2              INTFL=0;
 363   2              IADC=0;
 364   2          }
C51 COMPILER V9.54   INTERRUPT                                                             10/06/2018 17:27:39 PAGE 7   

 365   1        
 366   1          ADresult = AD4OUT;
 367   1      
 368   1        
 369   1      }
C51 COMPILER V9.54   INTERRUPT                                                             10/06/2018 17:27:39 PAGE 8   

ASSEMBLY LISTING OF GENERATED OBJECT CODE


             ; FUNCTION EXT1234Interrupt (BEGIN)
0000 C0E0              PUSH    ACC
0002 C0D0              PUSH    PSW
0004 75D000            MOV     PSW,#00H
0007 C007              PUSH    AR7
                                           ; SOURCE LINE # 37
                                           ; SOURCE LINE # 40
0009 E5F9              MOV     A,INT_REG1
000B 30E004            JNB     ACC.0,?C0002
000E 7F01              MOV     R7,#01H
0010 8002              SJMP    ?C0003
0012         ?C0002:
0012 7F00              MOV     R7,#00H
0014         ?C0003:
0014 EF                MOV     A,R7
0015 B40103            CJNE    A,#01H,?C0001
                                           ; SOURCE LINE # 41
                                           ; SOURCE LINE # 43
0018 53F9FE            ANL     INT_REG1,#0FEH
                                           ; SOURCE LINE # 44
001B         ?C0001:
                                           ; SOURCE LINE # 47
001B E5F9              MOV     A,INT_REG1
001D 30E104            JNB     ACC.1,?C0005
0020 7F01              MOV     R7,#01H
0022 8002              SJMP    ?C0006
0024         ?C0005:
0024 7F00              MOV     R7,#00H
0026         ?C0006:
0026 EF                MOV     A,R7
0027 B40105            CJNE    A,#01H,?C0004
                                           ; SOURCE LINE # 48
                                           ; SOURCE LINE # 49
002A B2A6              CPL     P26
                                           ; SOURCE LINE # 50
002C 53F9FC            ANL     INT_REG1,#0FCH
                                           ; SOURCE LINE # 51
002F         ?C0004:
                                           ; SOURCE LINE # 54
002F E5F9              MOV     A,INT_REG1
0031 30E204            JNB     ACC.2,?C0008
0034 7F01              MOV     R7,#01H
0036 8002              SJMP    ?C0009
0038         ?C0008:
0038 7F00              MOV     R7,#00H
003A         ?C0009:
003A EF                MOV     A,R7
003B B40103            CJNE    A,#01H,?C0007
                                           ; SOURCE LINE # 55
                                           ; SOURCE LINE # 56
003E 53F9F8            ANL     INT_REG1,#0F8H
                                           ; SOURCE LINE # 57
0041         ?C0007:
                                           ; SOURCE LINE # 60
0041 E5F9              MOV     A,INT_REG1
0043 30E304            JNB     ACC.3,?C0011
0046 7F01              MOV     R7,#01H
0048 8002              SJMP    ?C0012
004A         ?C0011:
C51 COMPILER V9.54   INTERRUPT                                                             10/06/2018 17:27:39 PAGE 9   

004A 7F00              MOV     R7,#00H
004C         ?C0012:
004C EF                MOV     A,R7
004D B40103            CJNE    A,#01H,?C0010
                                           ; SOURCE LINE # 61
                                           ; SOURCE LINE # 63
0050 53F9F0            ANL     INT_REG1,#0F0H
                                           ; SOURCE LINE # 64
0053         ?C0010:
                                           ; SOURCE LINE # 66
0053 E5F9              MOV     A,INT_REG1
0055 30E004            JNB     ACC.0,?C0014
0058 7F01              MOV     R7,#01H
005A 8002              SJMP    ?C0015
005C         ?C0014:
005C 7F00              MOV     R7,#00H
005E         ?C0015:
005E EF                MOV     A,R7
005F 702C              JNZ     ?C0022
0061 E5F9              MOV     A,INT_REG1
0063 30E104            JNB     ACC.1,?C0016
0066 7F01              MOV     R7,#01H
0068 8002              SJMP    ?C0017
006A         ?C0016:
006A 7F00              MOV     R7,#00H
006C         ?C0017:
006C EF                MOV     A,R7
006D 701E              JNZ     ?C0022
006F E5F9              MOV     A,INT_REG1
0071 30E204            JNB     ACC.2,?C0018
0074 7F01              MOV     R7,#01H
0076 8002              SJMP    ?C0019
0078         ?C0018:
0078 7F00              MOV     R7,#00H
007A         ?C0019:
007A EF                MOV     A,R7
007B 7010              JNZ     ?C0022
007D E5F9              MOV     A,INT_REG1
007F 30E304            JNB     ACC.3,?C0020
0082 7F01              MOV     R7,#01H
0084 8002              SJMP    ?C0021
0086         ?C0020:
0086 7F00              MOV     R7,#00H
0088         ?C0021:
0088 EF                MOV     A,R7
0089 7002              JNZ     ?C0022
                                           ; SOURCE LINE # 67
008B C289              CLR     IE0
008D         ?C0013:
                                           ; SOURCE LINE # 69
008D         ?C0022:
008D D007              POP     AR7
008F D0D0              POP     PSW
0091 D0E0              POP     ACC
0093 32                RETI    
             ; FUNCTION EXT1234Interrupt (END)

             ; FUNCTION TIMER0Interrupt (BEGIN)
                                           ; SOURCE LINE # 80
                                           ; SOURCE LINE # 83
0000 C28D              CLR     TF0
                                           ; SOURCE LINE # 84
C51 COMPILER V9.54   INTERRUPT                                                             10/06/2018 17:27:39 PAGE 10  

0002 B2A6              CPL     P26
                                           ; SOURCE LINE # 89
0004         ?C0023:
0004 32                RETI    
             ; FUNCTION TIMER0Interrupt (END)

             ; FUNCTION TIMER1Interrupt (BEGIN)
                                           ; SOURCE LINE # 91
                                           ; SOURCE LINE # 95
0000 C28F              CLR     TF1
                                           ; SOURCE LINE # 96
0002         ?C0024:
0002 32                RETI    
             ; FUNCTION TIMER1Interrupt (END)

             ; FUNCTION TIMER3Interrupt (BEGIN)
0000 C0E0              PUSH    ACC
0002 C083              PUSH    DPH
0004 C082              PUSH    DPL
0006 C0D0              PUSH    PSW
0008 75D000            MOV     PSW,#00H
000B C007              PUSH    AR7
                                           ; SOURCE LINE # 98
                                           ; SOURCE LINE # 100
000D 53F9E0            ANL     INT_REG1,#0E0H
                                           ; SOURCE LINE # 101
0010 90E0C8            MOV     DPTR,#0E0C8H
0013 E0                MOVX    A,@DPTR
0014 FF                MOV     R7,A
0015 EF                MOV     A,R7
0016 547F              ANL     A,#07FH
0018 FF                MOV     R7,A
0019 EF                MOV     A,R7
001A F0                MOVX    @DPTR,A
                                           ; SOURCE LINE # 102
001B 90E0C8            MOV     DPTR,#0E0C8H
001E E0                MOVX    A,@DPTR
001F FF                MOV     R7,A
0020 EF                MOV     A,R7
0021 54BF              ANL     A,#0BFH
0023 FF                MOV     R7,A
0024 EF                MOV     A,R7
0025 F0                MOVX    @DPTR,A
                                           ; SOURCE LINE # 104
0026 B2A6              CPL     P26
                                           ; SOURCE LINE # 106
0028 E5F9              MOV     A,INT_REG1
002A 30E404            JNB     ACC.4,?C0026
002D 7F01              MOV     R7,#01H
002F 8002              SJMP    ?C0027
0031         ?C0026:
0031 7F00              MOV     R7,#00H
0033         ?C0027:
0033 EF                MOV     A,R7
0034 7010              JNZ     ?C0030
0036 E5F9              MOV     A,INT_REG1
0038 30E504            JNB     ACC.5,?C0028
003B 7F01              MOV     R7,#01H
003D 8002              SJMP    ?C0029
003F         ?C0028:
003F 7F00              MOV     R7,#00H
0041         ?C0029:
C51 COMPILER V9.54   INTERRUPT                                                             10/06/2018 17:27:39 PAGE 11  

0041 EF                MOV     A,R7
0042 7002              JNZ     ?C0030
                                           ; SOURCE LINE # 107
0044 C28B              CLR     IE1
0046         ?C0025:
                                           ; SOURCE LINE # 108
0046         ?C0030:
0046 D007              POP     AR7
0048 D0D0              POP     PSW
004A D082              POP     DPL
004C D083              POP     DPH
004E D0E0              POP     ACC
0050 32                RETI    
             ; FUNCTION TIMER3Interrupt (END)

             ; FUNCTION TIMER4Interrupt (BEGIN)
0000 C0E0              PUSH    ACC
0002 C083              PUSH    DPH
0004 C082              PUSH    DPL
0006 C0D0              PUSH    PSW
0008 75D000            MOV     PSW,#00H
000B C007              PUSH    AR7
                                           ; SOURCE LINE # 110
                                           ; SOURCE LINE # 115
000D 90E0CE            MOV     DPTR,#0E0CEH
0010 E0                MOVX    A,@DPTR
0011 FF                MOV     R7,A
0012 EF                MOV     A,R7
0013 547F              ANL     A,#07FH
0015 FF                MOV     R7,A
0016 EF                MOV     A,R7
0017 F0                MOVX    @DPTR,A
                                           ; SOURCE LINE # 117
0018 53FEF0            ANL     INT_REG4,#0F0H
                                           ; SOURCE LINE # 120
001B B2A6              CPL     P26
                                           ; SOURCE LINE # 122
001D E5FE              MOV     A,INT_REG4
001F 30E004            JNB     ACC.0,?C0032
0022 7F01              MOV     R7,#01H
0024 8002              SJMP    ?C0033
0026         ?C0032:
0026 7F00              MOV     R7,#00H
0028         ?C0033:
0028 EF                MOV     A,R7
0029 703A              JNZ     ?C0042
002B E5FE              MOV     A,INT_REG4
002D 30E104            JNB     ACC.1,?C0034
0030 7F01              MOV     R7,#01H
0032 8002              SJMP    ?C0035
0034         ?C0034:
0034 7F00              MOV     R7,#00H
0036         ?C0035:
0036 EF                MOV     A,R7
0037 702C              JNZ     ?C0042
0039 E5FE              MOV     A,INT_REG4
003B 30E204            JNB     ACC.2,?C0036
003E 7F01              MOV     R7,#01H
0040 8002              SJMP    ?C0037
0042         ?C0036:
0042 7F00              MOV     R7,#00H
0044         ?C0037:
C51 COMPILER V9.54   INTERRUPT                                                             10/06/2018 17:27:39 PAGE 12  

0044 EF                MOV     A,R7
0045 701E              JNZ     ?C0042
0047 E5FE              MOV     A,INT_REG4
0049 30E304            JNB     ACC.3,?C0038
004C 7F01              MOV     R7,#01H
004E 8002              SJMP    ?C0039
0050         ?C0038:
0050 7F00              MOV     R7,#00H
0052         ?C0039:
0052 EF                MOV     A,R7
0053 7010              JNZ     ?C0042
0055 E593              MOV     A,BPCTRL
0057 30E704            JNB     ACC.7,?C0040
005A 7F01              MOV     R7,#01H
005C 8002              SJMP    ?C0041
005E         ?C0040:
005E 7F00              MOV     R7,#00H
0060         ?C0041:
0060 EF                MOV     A,R7
0061 7002              JNZ     ?C0042
                                           ; SOURCE LINE # 123
0063 C2C5              CLR     IEX6
0065         ?C0031:
                                           ; SOURCE LINE # 127
0065         ?C0042:
0065 D007              POP     AR7
0067 D0D0              POP     PSW
0069 D082              POP     DPL
006B D083              POP     DPH
006D D0E0              POP     ACC
006F 32                RETI    
             ; FUNCTION TIMER4Interrupt (END)

             ; FUNCTION TIMER5Interrupt (BEGIN)
0000 C0E0              PUSH    ACC
0002 C083              PUSH    DPH
0004 C082              PUSH    DPL
0006 C0D0              PUSH    PSW
0008 75D000            MOV     PSW,#00H
000B C006              PUSH    AR6
000D C007              PUSH    AR7
                                           ; SOURCE LINE # 129
                                           ; SOURCE LINE # 132
000F 90E0F3            MOV     DPTR,#0E0F3H
0012 E0                MOVX    A,@DPTR
0013 FF                MOV     R7,A
0014 EF                MOV     A,R7
0015 547F              ANL     A,#07FH
0017 FF                MOV     R7,A
0018 EF                MOV     A,R7
0019 F0                MOVX    @DPTR,A
                                           ; SOURCE LINE # 133
001A 90E0F3            MOV     DPTR,#0E0F3H
001D E0                MOVX    A,@DPTR
001E FF                MOV     R7,A
001F EF                MOV     A,R7
0020 54BF              ANL     A,#0BFH
0022 FF                MOV     R7,A
0023 EF                MOV     A,R7
0024 F0                MOVX    @DPTR,A
                                           ; SOURCE LINE # 136
0025 B2A6              CPL     P26
C51 COMPILER V9.54   INTERRUPT                                                             10/06/2018 17:27:39 PAGE 13  

                                           ; SOURCE LINE # 137
0027 90E0F3            MOV     DPTR,#0E0F3H
002A E0                MOVX    A,@DPTR
002B FF                MOV     R7,A
002C EF                MOV     A,R7
002D C4                SWAP    A
002E 13                RRC     A
002F 13                RRC     A
0030 5403              ANL     A,#03H
0032 FF                MOV     R7,A
0033 EF                MOV     A,R7
0034 30E004            JNB     ACC.0,?C0044
0037 7F01              MOV     R7,#01H
0039 8002              SJMP    ?C0045
003B         ?C0044:
003B 7F00              MOV     R7,#00H
003D         ?C0045:
003D 90E0F3            MOV     DPTR,#0E0F3H
0040 E0                MOVX    A,@DPTR
0041 FE                MOV     R6,A
0042 EE                MOV     A,R6
0043 C4                SWAP    A
0044 13                RRC     A
0045 13                RRC     A
0046 13                RRC     A
0047 5401              ANL     A,#01H
0049 FE                MOV     R6,A
004A EE                MOV     A,R6
004B 30E004            JNB     ACC.0,?C0046
004E 7E01              MOV     R6,#01H
0050 8002              SJMP    ?C0047
0052         ?C0046:
0052 7E00              MOV     R6,#00H
0054         ?C0047:
0054 EE                MOV     A,R6
0055 4F                ORL     A,R7
0056 FF                MOV     R7,A
0057 EF                MOV     A,R7
0058 7010              JNZ     ?C0050
005A E5FA              MOV     A,INT_REG2
005C 30E304            JNB     ACC.3,?C0048
005F 7F01              MOV     R7,#01H
0061 8002              SJMP    ?C0049
0063         ?C0048:
0063 7F00              MOV     R7,#00H
0065         ?C0049:
0065 EF                MOV     A,R7
0066 7002              JNZ     ?C0050
                                           ; SOURCE LINE # 138
0068 C2C2              CLR     IEX3
006A         ?C0043:
                                           ; SOURCE LINE # 141
006A         ?C0050:
006A D007              POP     AR7
006C D006              POP     AR6
006E D0D0              POP     PSW
0070 D082              POP     DPL
0072 D083              POP     DPH
0074 D0E0              POP     ACC
0076 32                RETI    
             ; FUNCTION TIMER5Interrupt (END)

C51 COMPILER V9.54   INTERRUPT                                                             10/06/2018 17:27:39 PAGE 14  

             ; FUNCTION TIMER6Interrupt (BEGIN)
0000 C0E0              PUSH    ACC
0002 C083              PUSH    DPH
0004 C082              PUSH    DPL
0006 C0D0              PUSH    PSW
0008 75D000            MOV     PSW,#00H
000B C006              PUSH    AR6
000D C007              PUSH    AR7
                                           ; SOURCE LINE # 142
                                           ; SOURCE LINE # 145
000F 90E0F9            MOV     DPTR,#0E0F9H
0012 E0                MOVX    A,@DPTR
0013 FF                MOV     R7,A
0014 EF                MOV     A,R7
0015 547F              ANL     A,#07FH
0017 FF                MOV     R7,A
0018 EF                MOV     A,R7
0019 F0                MOVX    @DPTR,A
                                           ; SOURCE LINE # 146
001A 90E0F9            MOV     DPTR,#0E0F9H
001D E0                MOVX    A,@DPTR
001E FF                MOV     R7,A
001F EF                MOV     A,R7
0020 54BF              ANL     A,#0BFH
0022 FF                MOV     R7,A
0023 EF                MOV     A,R7
0024 F0                MOVX    @DPTR,A
                                           ; SOURCE LINE # 148
0025 E5FD              MOV     A,INT_REG3
0027 30E304            JNB     ACC.3,?C0052
002A 7F01              MOV     R7,#01H
002C 8002              SJMP    ?C0053
002E         ?C0052:
002E 7F00              MOV     R7,#00H
0030         ?C0053:
0030 EF                MOV     A,R7
0031 7051              JNZ     ?C0051
0033 E5FD              MOV     A,INT_REG3
0035 30E404            JNB     ACC.4,?C0054
0038 7F01              MOV     R7,#01H
003A 8002              SJMP    ?C0055
003C         ?C0054:
003C 7F00              MOV     R7,#00H
003E         ?C0055:
003E EF                MOV     A,R7
003F 7043              JNZ     ?C0051
0041 E5FD              MOV     A,INT_REG3
0043 30E504            JNB     ACC.5,?C0056
0046 7F01              MOV     R7,#01H
0048 8002              SJMP    ?C0057
004A         ?C0056:
004A 7F00              MOV     R7,#00H
004C         ?C0057:
004C EF                MOV     A,R7
004D 7035              JNZ     ?C0051
004F 90E0F9            MOV     DPTR,#0E0F9H
0052 E0                MOVX    A,@DPTR
0053 FF                MOV     R7,A
0054 EF                MOV     A,R7
0055 C4                SWAP    A
0056 13                RRC     A
0057 13                RRC     A
C51 COMPILER V9.54   INTERRUPT                                                             10/06/2018 17:27:39 PAGE 15  

0058 5403              ANL     A,#03H
005A FF                MOV     R7,A
005B EF                MOV     A,R7
005C 30E004            JNB     ACC.0,?C0058
005F 7F01              MOV     R7,#01H
0061 8002              SJMP    ?C0059
0063         ?C0058:
0063 7F00              MOV     R7,#00H
0065         ?C0059:
0065 90E0F9            MOV     DPTR,#0E0F9H
0068 E0                MOVX    A,@DPTR
0069 FE                MOV     R6,A
006A EE                MOV     A,R6
006B C4                SWAP    A
006C 13                RRC     A
006D 13                RRC     A
006E 13                RRC     A
006F 5401              ANL     A,#01H
0071 FE                MOV     R6,A
0072 EE                MOV     A,R6
0073 30E004            JNB     ACC.0,?C0060
0076 7E01              MOV     R6,#01H
0078 8002              SJMP    ?C0061
007A         ?C0060:
007A 7E00              MOV     R6,#00H
007C         ?C0061:
007C EE                MOV     A,R6
007D 4F                ORL     A,R7
007E FF                MOV     R7,A
007F EF                MOV     A,R7
0080 7002              JNZ     ?C0051
                                           ; SOURCE LINE # 149
0082 C2C4              CLR     IEX5
0084         ?C0051:
                                           ; SOURCE LINE # 150
0084 B2A6              CPL     P26
                                           ; SOURCE LINE # 152
0086         ?C0062:
0086 D007              POP     AR7
0088 D006              POP     AR6
008A D0D0              POP     PSW
008C D082              POP     DPL
008E D083              POP     DPH
0090 D0E0              POP     ACC
0092 32                RETI    
             ; FUNCTION TIMER6Interrupt (END)

             ; FUNCTION ePWM123Interrupt (BEGIN)
0000 C0E0              PUSH    ACC
0002 C0D0              PUSH    PSW
0004 75D000            MOV     PSW,#00H
0007 C007              PUSH    AR7
                                           ; SOURCE LINE # 159
                                           ; SOURCE LINE # 161
0009 E5FA              MOV     A,INT_REG2
000B 30E004            JNB     ACC.0,?C0064
000E 7F01              MOV     R7,#01H
0010 8002              SJMP    ?C0065
0012         ?C0064:
0012 7F00              MOV     R7,#00H
0014         ?C0065:
0014 EF                MOV     A,R7
C51 COMPILER V9.54   INTERRUPT                                                             10/06/2018 17:27:39 PAGE 16  

0015 B40103            CJNE    A,#01H,?C0063
                                           ; SOURCE LINE # 162
                                           ; SOURCE LINE # 166
0018 53FAFE            ANL     INT_REG2,#0FEH
                                           ; SOURCE LINE # 167
001B         ?C0063:
                                           ; SOURCE LINE # 170
001B E5FA              MOV     A,INT_REG2
001D 30E104            JNB     ACC.1,?C0067
0020 7F01              MOV     R7,#01H
0022 8002              SJMP    ?C0068
0024         ?C0067:
0024 7F00              MOV     R7,#00H
0026         ?C0068:
0026 EF                MOV     A,R7
0027 B40103            CJNE    A,#01H,?C0066
                                           ; SOURCE LINE # 171
                                           ; SOURCE LINE # 177
002A 53FAFC            ANL     INT_REG2,#0FCH
                                           ; SOURCE LINE # 178
002D         ?C0066:
                                           ; SOURCE LINE # 181
002D E5FA              MOV     A,INT_REG2
002F 30E204            JNB     ACC.2,?C0070
0032 7F01              MOV     R7,#01H
0034 8002              SJMP    ?C0071
0036         ?C0070:
0036 7F00              MOV     R7,#00H
0038         ?C0071:
0038 EF                MOV     A,R7
0039 B40103            CJNE    A,#01H,?C0069
                                           ; SOURCE LINE # 182
                                           ; SOURCE LINE # 184
003C 53FAF8            ANL     INT_REG2,#0F8H
                                           ; SOURCE LINE # 185
003F         ?C0069:
                                           ; SOURCE LINE # 187
003F E5FA              MOV     A,INT_REG2
0041 30E004            JNB     ACC.0,?C0073
0044 7F01              MOV     R7,#01H
0046 8002              SJMP    ?C0074
0048         ?C0073:
0048 7F00              MOV     R7,#00H
004A         ?C0074:
004A EF                MOV     A,R7
004B 701E              JNZ     ?C0079
004D E5FA              MOV     A,INT_REG2
004F 30E104            JNB     ACC.1,?C0075
0052 7F01              MOV     R7,#01H
0054 8002              SJMP    ?C0076
0056         ?C0075:
0056 7F00              MOV     R7,#00H
0058         ?C0076:
0058 EF                MOV     A,R7
0059 7010              JNZ     ?C0079
005B E5FA              MOV     A,INT_REG2
005D 30E204            JNB     ACC.2,?C0077
0060 7F01              MOV     R7,#01H
0062 8002              SJMP    ?C0078
0064         ?C0077:
0064 7F00              MOV     R7,#00H
0066         ?C0078:
C51 COMPILER V9.54   INTERRUPT                                                             10/06/2018 17:27:39 PAGE 17  

0066 EF                MOV     A,R7
0067 7002              JNZ     ?C0079
                                           ; SOURCE LINE # 188
0069 C2C1              CLR     IEX2
006B         ?C0072:
                                           ; SOURCE LINE # 190
006B         ?C0079:
006B D007              POP     AR7
006D D0D0              POP     PSW
006F D0E0              POP     ACC
0071 32                RETI    
             ; FUNCTION ePWM123Interrupt (END)

             ; FUNCTION ePWM4Interrupt (BEGIN)
0000 C0E0              PUSH    ACC
0002 C083              PUSH    DPH
0004 C082              PUSH    DPL
0006 C0D0              PUSH    PSW
0008 75D000            MOV     PSW,#00H
000B C006              PUSH    AR6
000D C007              PUSH    AR7
                                           ; SOURCE LINE # 193
                                           ; SOURCE LINE # 197
000F 53FAF0            ANL     INT_REG2,#0F0H
                                           ; SOURCE LINE # 198
0012 90E0F3            MOV     DPTR,#0E0F3H
0015 E0                MOVX    A,@DPTR
0016 FF                MOV     R7,A
0017 EF                MOV     A,R7
0018 C4                SWAP    A
0019 13                RRC     A
001A 13                RRC     A
001B 5403              ANL     A,#03H
001D FF                MOV     R7,A
001E EF                MOV     A,R7
001F 30E004            JNB     ACC.0,?C0081
0022 7F01              MOV     R7,#01H
0024 8002              SJMP    ?C0082
0026         ?C0081:
0026 7F00              MOV     R7,#00H
0028         ?C0082:
0028 90E0F3            MOV     DPTR,#0E0F3H
002B E0                MOVX    A,@DPTR
002C FE                MOV     R6,A
002D EE                MOV     A,R6
002E C4                SWAP    A
002F 13                RRC     A
0030 13                RRC     A
0031 13                RRC     A
0032 5401              ANL     A,#01H
0034 FE                MOV     R6,A
0035 EE                MOV     A,R6
0036 30E004            JNB     ACC.0,?C0083
0039 7E01              MOV     R6,#01H
003B 8002              SJMP    ?C0084
003D         ?C0083:
003D 7E00              MOV     R6,#00H
003F         ?C0084:
003F EE                MOV     A,R6
0040 4F                ORL     A,R7
0041 FF                MOV     R7,A
0042 EF                MOV     A,R7
C51 COMPILER V9.54   INTERRUPT                                                             10/06/2018 17:27:39 PAGE 18  

0043 7010              JNZ     ?C0087
0045 E5FA              MOV     A,INT_REG2
0047 30E304            JNB     ACC.3,?C0085
004A 7F01              MOV     R7,#01H
004C 8002              SJMP    ?C0086
004E         ?C0085:
004E 7F00              MOV     R7,#00H
0050         ?C0086:
0050 EF                MOV     A,R7
0051 7002              JNZ     ?C0087
                                           ; SOURCE LINE # 199
0053 C2C2              CLR     IEX3
0055         ?C0080:
                                           ; SOURCE LINE # 201
0055         ?C0087:
0055 D007              POP     AR7
0057 D006              POP     AR6
0059 D0D0              POP     PSW
005B D082              POP     DPL
005D D083              POP     DPH
005F D0E0              POP     ACC
0061 32                RETI    
             ; FUNCTION ePWM4Interrupt (END)

             ; FUNCTION Comp1Interrupt (BEGIN)
0000 C0E0              PUSH    ACC
0002 C0D0              PUSH    PSW
0004 75D000            MOV     PSW,#00H
0007 C007              PUSH    AR7
                                           ; SOURCE LINE # 209
                                           ; SOURCE LINE # 215
0009 53F9C0            ANL     INT_REG1,#0C0H
                                           ; SOURCE LINE # 217
000C E5F9              MOV     A,INT_REG1
000E 30E404            JNB     ACC.4,?C0089
0011 7F01              MOV     R7,#01H
0013 8002              SJMP    ?C0090
0015         ?C0089:
0015 7F00              MOV     R7,#00H
0017         ?C0090:
0017 EF                MOV     A,R7
0018 7010              JNZ     ?C0093
001A E5F9              MOV     A,INT_REG1
001C 30E504            JNB     ACC.5,?C0091
001F 7F01              MOV     R7,#01H
0021 8002              SJMP    ?C0092
0023         ?C0091:
0023 7F00              MOV     R7,#00H
0025         ?C0092:
0025 EF                MOV     A,R7
0026 7002              JNZ     ?C0093
                                           ; SOURCE LINE # 218
0028 C28B              CLR     IE1
002A         ?C0088:
                                           ; SOURCE LINE # 219
002A         ?C0093:
002A D007              POP     AR7
002C D0D0              POP     PSW
002E D0E0              POP     ACC
0030 32                RETI    
             ; FUNCTION Comp1Interrupt (END)

C51 COMPILER V9.54   INTERRUPT                                                             10/06/2018 17:27:39 PAGE 19  

             ; FUNCTION Comp234Interrupt (BEGIN)
0000 C0E0              PUSH    ACC
0002 C0D0              PUSH    PSW
0004 75D000            MOV     PSW,#00H
0007 C007              PUSH    AR7
                                           ; SOURCE LINE # 222
                                           ; SOURCE LINE # 227
0009 E5FD              MOV     A,INT_REG3
000B 30E004            JNB     ACC.0,?C0095
000E 7F01              MOV     R7,#01H
0010 8002              SJMP    ?C0096
0012         ?C0095:
0012 7F00              MOV     R7,#00H
0014         ?C0096:
0014 EF                MOV     A,R7
0015 B40103            CJNE    A,#01H,?C0094
                                           ; SOURCE LINE # 229
                                           ; SOURCE LINE # 231
0018 53FDFE            ANL     INT_REG3,#0FEH
                                           ; SOURCE LINE # 232
001B         ?C0094:
                                           ; SOURCE LINE # 234
001B E5FD              MOV     A,INT_REG3
001D 30E104            JNB     ACC.1,?C0098
0020 7F01              MOV     R7,#01H
0022 8002              SJMP    ?C0099
0024         ?C0098:
0024 7F00              MOV     R7,#00H
0026         ?C0099:
0026 EF                MOV     A,R7
0027 B40103            CJNE    A,#01H,?C0097
                                           ; SOURCE LINE # 236
                                           ; SOURCE LINE # 238
002A 53FDFC            ANL     INT_REG3,#0FCH
                                           ; SOURCE LINE # 239
002D         ?C0097:
                                           ; SOURCE LINE # 241
002D E5FD              MOV     A,INT_REG3
002F 30E204            JNB     ACC.2,?C0101
0032 7F01              MOV     R7,#01H
0034 8002              SJMP    ?C0102
0036         ?C0101:
0036 7F00              MOV     R7,#00H
0038         ?C0102:
0038 EF                MOV     A,R7
0039 B40103            CJNE    A,#01H,?C0100
                                           ; SOURCE LINE # 243
                                           ; SOURCE LINE # 245
003C 53FDF8            ANL     INT_REG3,#0F8H
                                           ; SOURCE LINE # 246
003F         ?C0100:
                                           ; SOURCE LINE # 248
003F E5FD              MOV     A,INT_REG3
0041 30E004            JNB     ACC.0,?C0104
0044 7F01              MOV     R7,#01H
0046 8002              SJMP    ?C0105
0048         ?C0104:
0048 7F00              MOV     R7,#00H
004A         ?C0105:
004A EF                MOV     A,R7
004B 701E              JNZ     ?C0110
004D E5FD              MOV     A,INT_REG3
C51 COMPILER V9.54   INTERRUPT                                                             10/06/2018 17:27:39 PAGE 20  

004F 30E104            JNB     ACC.1,?C0106
0052 7F01              MOV     R7,#01H
0054 8002              SJMP    ?C0107
0056         ?C0106:
0056 7F00              MOV     R7,#00H
0058         ?C0107:
0058 EF                MOV     A,R7
0059 7010              JNZ     ?C0110
005B E5FD              MOV     A,INT_REG3
005D 30E204            JNB     ACC.2,?C0108
0060 7F01              MOV     R7,#01H
0062 8002              SJMP    ?C0109
0064         ?C0108:
0064 7F00              MOV     R7,#00H
0066         ?C0109:
0066 EF                MOV     A,R7
0067 7002              JNZ     ?C0110
                                           ; SOURCE LINE # 249
0069 C2C3              CLR     IEX4
006B         ?C0103:
                                           ; SOURCE LINE # 251
006B         ?C0110:
006B D007              POP     AR7
006D D0D0              POP     PSW
006F D0E0              POP     ACC
0071 32                RETI    
             ; FUNCTION Comp234Interrupt (END)

             ; FUNCTION I2CInterrupt (BEGIN)
0000 C0E0              PUSH    ACC
0002 C083              PUSH    DPH
0004 C082              PUSH    DPL
0006 C0D0              PUSH    PSW
0008 75D000            MOV     PSW,#00H
000B C006              PUSH    AR6
000D C007              PUSH    AR7
                                           ; SOURCE LINE # 257
                                           ; SOURCE LINE # 260
000F 53FDF0            ANL     INT_REG3,#0F0H
                                           ; SOURCE LINE # 262
0012 E5FD              MOV     A,INT_REG3
0014 30E304            JNB     ACC.3,?C0112
0017 7F01              MOV     R7,#01H
0019 8002              SJMP    ?C0113
001B         ?C0112:
001B 7F00              MOV     R7,#00H
001D         ?C0113:
001D EF                MOV     A,R7
001E 7051              JNZ     ?C0122
0020 E5FD              MOV     A,INT_REG3
0022 30E404            JNB     ACC.4,?C0114
0025 7F01              MOV     R7,#01H
0027 8002              SJMP    ?C0115
0029         ?C0114:
0029 7F00              MOV     R7,#00H
002B         ?C0115:
002B EF                MOV     A,R7
002C 7043              JNZ     ?C0122
002E E5FD              MOV     A,INT_REG3
0030 30E504            JNB     ACC.5,?C0116
0033 7F01              MOV     R7,#01H
0035 8002              SJMP    ?C0117
C51 COMPILER V9.54   INTERRUPT                                                             10/06/2018 17:27:39 PAGE 21  

0037         ?C0116:
0037 7F00              MOV     R7,#00H
0039         ?C0117:
0039 EF                MOV     A,R7
003A 7035              JNZ     ?C0122
003C 90E0F9            MOV     DPTR,#0E0F9H
003F E0                MOVX    A,@DPTR
0040 FF                MOV     R7,A
0041 EF                MOV     A,R7
0042 C4                SWAP    A
0043 13                RRC     A
0044 13                RRC     A
0045 5403              ANL     A,#03H
0047 FF                MOV     R7,A
0048 EF                MOV     A,R7
0049 30E004            JNB     ACC.0,?C0118
004C 7F01              MOV     R7,#01H
004E 8002              SJMP    ?C0119
0050         ?C0118:
0050 7F00              MOV     R7,#00H
0052         ?C0119:
0052 90E0F9            MOV     DPTR,#0E0F9H
0055 E0                MOVX    A,@DPTR
0056 FE                MOV     R6,A
0057 EE                MOV     A,R6
0058 C4                SWAP    A
0059 13                RRC     A
005A 13                RRC     A
005B 13                RRC     A
005C 5401              ANL     A,#01H
005E FE                MOV     R6,A
005F EE                MOV     A,R6
0060 30E004            JNB     ACC.0,?C0120
0063 7E01              MOV     R6,#01H
0065 8002              SJMP    ?C0121
0067         ?C0120:
0067 7E00              MOV     R6,#00H
0069         ?C0121:
0069 EE                MOV     A,R6
006A 4F                ORL     A,R7
006B FF                MOV     R7,A
006C EF                MOV     A,R7
006D 7002              JNZ     ?C0122
                                           ; SOURCE LINE # 263
006F C2C4              CLR     IEX5
0071         ?C0111:
                                           ; SOURCE LINE # 264
0071         ?C0122:
0071 D007              POP     AR7
0073 D006              POP     AR6
0075 D0D0              POP     PSW
0077 D082              POP     DPL
0079 D083              POP     DPH
007B D0E0              POP     ACC
007D 32                RETI    
             ; FUNCTION I2CInterrupt (END)

             ; FUNCTION SPIInterrupt (BEGIN)
0000 C0E0              PUSH    ACC
0002 C083              PUSH    DPH
0004 C082              PUSH    DPL
0006 C0D0              PUSH    PSW
C51 COMPILER V9.54   INTERRUPT                                                             10/06/2018 17:27:39 PAGE 22  

0008 75D000            MOV     PSW,#00H
000B C006              PUSH    AR6
000D C007              PUSH    AR7
                                           ; SOURCE LINE # 266
                                           ; SOURCE LINE # 269
000F 53FDE0            ANL     INT_REG3,#0E0H
                                           ; SOURCE LINE # 270
0012 E5FD              MOV     A,INT_REG3
0014 30E304            JNB     ACC.3,?C0124
0017 7F01              MOV     R7,#01H
0019 8002              SJMP    ?C0125
001B         ?C0124:
001B 7F00              MOV     R7,#00H
001D         ?C0125:
001D EF                MOV     A,R7
001E 7051              JNZ     ?C0134
0020 E5FD              MOV     A,INT_REG3
0022 30E404            JNB     ACC.4,?C0126
0025 7F01              MOV     R7,#01H
0027 8002              SJMP    ?C0127
0029         ?C0126:
0029 7F00              MOV     R7,#00H
002B         ?C0127:
002B EF                MOV     A,R7
002C 7043              JNZ     ?C0134
002E E5FD              MOV     A,INT_REG3
0030 30E504            JNB     ACC.5,?C0128
0033 7F01              MOV     R7,#01H
0035 8002              SJMP    ?C0129
0037         ?C0128:
0037 7F00              MOV     R7,#00H
0039         ?C0129:
0039 EF                MOV     A,R7
003A 7035              JNZ     ?C0134
003C 90E0F9            MOV     DPTR,#0E0F9H
003F E0                MOVX    A,@DPTR
0040 FF                MOV     R7,A
0041 EF                MOV     A,R7
0042 C4                SWAP    A
0043 13                RRC     A
0044 13                RRC     A
0045 5403              ANL     A,#03H
0047 FF                MOV     R7,A
0048 EF                MOV     A,R7
0049 30E004            JNB     ACC.0,?C0130
004C 7F01              MOV     R7,#01H
004E 8002              SJMP    ?C0131
0050         ?C0130:
0050 7F00              MOV     R7,#00H
0052         ?C0131:
0052 90E0F9            MOV     DPTR,#0E0F9H
0055 E0                MOVX    A,@DPTR
0056 FE                MOV     R6,A
0057 EE                MOV     A,R6
0058 C4                SWAP    A
0059 13                RRC     A
005A 13                RRC     A
005B 13                RRC     A
005C 5401              ANL     A,#01H
005E FE                MOV     R6,A
005F EE                MOV     A,R6
0060 30E004            JNB     ACC.0,?C0132
C51 COMPILER V9.54   INTERRUPT                                                             10/06/2018 17:27:39 PAGE 23  

0063 7E01              MOV     R6,#01H
0065 8002              SJMP    ?C0133
0067         ?C0132:
0067 7E00              MOV     R6,#00H
0069         ?C0133:
0069 EE                MOV     A,R6
006A 4F                ORL     A,R7
006B FF                MOV     R7,A
006C EF                MOV     A,R7
006D 7002              JNZ     ?C0134
                                           ; SOURCE LINE # 271
006F C2C4              CLR     IEX5
0071         ?C0123:
                                           ; SOURCE LINE # 272
0071         ?C0134:
0071 D007              POP     AR7
0073 D006              POP     AR6
0075 D0D0              POP     PSW
0077 D082              POP     DPL
0079 D083              POP     DPH
007B D0E0              POP     ACC
007D 32                RETI    
             ; FUNCTION SPIInterrupt (END)

             ; FUNCTION eFlashInterrupt (BEGIN)
0000 C0E0              PUSH    ACC
0002 C083              PUSH    DPH
0004 C082              PUSH    DPL
0006 C0D0              PUSH    PSW
0008 75D000            MOV     PSW,#00H
000B C006              PUSH    AR6
000D C007              PUSH    AR7
                                           ; SOURCE LINE # 274
                                           ; SOURCE LINE # 277
000F 53FDC0            ANL     INT_REG3,#0C0H
                                           ; SOURCE LINE # 278
0012 E5FD              MOV     A,INT_REG3
0014 30E304            JNB     ACC.3,?C0136
0017 7F01              MOV     R7,#01H
0019 8002              SJMP    ?C0137
001B         ?C0136:
001B 7F00              MOV     R7,#00H
001D         ?C0137:
001D EF                MOV     A,R7
001E 7051              JNZ     ?C0146
0020 E5FD              MOV     A,INT_REG3
0022 30E404            JNB     ACC.4,?C0138
0025 7F01              MOV     R7,#01H
0027 8002              SJMP    ?C0139
0029         ?C0138:
0029 7F00              MOV     R7,#00H
002B         ?C0139:
002B EF                MOV     A,R7
002C 7043              JNZ     ?C0146
002E E5FD              MOV     A,INT_REG3
0030 30E504            JNB     ACC.5,?C0140
0033 7F01              MOV     R7,#01H
0035 8002              SJMP    ?C0141
0037         ?C0140:
0037 7F00              MOV     R7,#00H
0039         ?C0141:
0039 EF                MOV     A,R7
C51 COMPILER V9.54   INTERRUPT                                                             10/06/2018 17:27:39 PAGE 24  

003A 7035              JNZ     ?C0146
003C 90E0F9            MOV     DPTR,#0E0F9H
003F E0                MOVX    A,@DPTR
0040 FF                MOV     R7,A
0041 EF                MOV     A,R7
0042 C4                SWAP    A
0043 13                RRC     A
0044 13                RRC     A
0045 5403              ANL     A,#03H
0047 FF                MOV     R7,A
0048 EF                MOV     A,R7
0049 30E004            JNB     ACC.0,?C0142
004C 7F01              MOV     R7,#01H
004E 8002              SJMP    ?C0143
0050         ?C0142:
0050 7F00              MOV     R7,#00H
0052         ?C0143:
0052 90E0F9            MOV     DPTR,#0E0F9H
0055 E0                MOVX    A,@DPTR
0056 FE                MOV     R6,A
0057 EE                MOV     A,R6
0058 C4                SWAP    A
0059 13                RRC     A
005A 13                RRC     A
005B 13                RRC     A
005C 5401              ANL     A,#01H
005E FE                MOV     R6,A
005F EE                MOV     A,R6
0060 30E004            JNB     ACC.0,?C0144
0063 7E01              MOV     R6,#01H
0065 8002              SJMP    ?C0145
0067         ?C0144:
0067 7E00              MOV     R6,#00H
0069         ?C0145:
0069 EE                MOV     A,R6
006A 4F                ORL     A,R7
006B FF                MOV     R7,A
006C EF                MOV     A,R7
006D 7002              JNZ     ?C0146
                                           ; SOURCE LINE # 279
006F C2C4              CLR     IEX5
0071         ?C0135:
                                           ; SOURCE LINE # 280
0071         ?C0146:
0071 D007              POP     AR7
0073 D006              POP     AR6
0075 D0D0              POP     PSW
0077 D082              POP     DPL
0079 D083              POP     DPH
007B D0E0              POP     ACC
007D 32                RETI    
             ; FUNCTION eFlashInterrupt (END)

             ; FUNCTION RTCInterrupt (BEGIN)
0000 C0E0              PUSH    ACC
0002 C0D0              PUSH    PSW
0004 75D000            MOV     PSW,#00H
0007 C007              PUSH    AR7
                                           ; SOURCE LINE # 285
                                           ; SOURCE LINE # 290
0009 53FEFE            ANL     INT_REG4,#0FEH
                                           ; SOURCE LINE # 291
C51 COMPILER V9.54   INTERRUPT                                                             10/06/2018 17:27:39 PAGE 25  

000C E5FE              MOV     A,INT_REG4
000E 30E004            JNB     ACC.0,?C0148
0011 7F01              MOV     R7,#01H
0013 8002              SJMP    ?C0149
0015         ?C0148:
0015 7F00              MOV     R7,#00H
0017         ?C0149:
0017 EF                MOV     A,R7
0018 703A              JNZ     ?C0158
001A E5FE              MOV     A,INT_REG4
001C 30E104            JNB     ACC.1,?C0150
001F 7F01              MOV     R7,#01H
0021 8002              SJMP    ?C0151
0023         ?C0150:
0023 7F00              MOV     R7,#00H
0025         ?C0151:
0025 EF                MOV     A,R7
0026 702C              JNZ     ?C0158
0028 E5FE              MOV     A,INT_REG4
002A 30E204            JNB     ACC.2,?C0152
002D 7F01              MOV     R7,#01H
002F 8002              SJMP    ?C0153
0031         ?C0152:
0031 7F00              MOV     R7,#00H
0033         ?C0153:
0033 EF                MOV     A,R7
0034 701E              JNZ     ?C0158
0036 E5FE              MOV     A,INT_REG4
0038 30E304            JNB     ACC.3,?C0154
003B 7F01              MOV     R7,#01H
003D 8002              SJMP    ?C0155
003F         ?C0154:
003F 7F00              MOV     R7,#00H
0041         ?C0155:
0041 EF                MOV     A,R7
0042 7010              JNZ     ?C0158
0044 E593              MOV     A,BPCTRL
0046 30E704            JNB     ACC.7,?C0156
0049 7F01              MOV     R7,#01H
004B 8002              SJMP    ?C0157
004D         ?C0156:
004D 7F00              MOV     R7,#00H
004F         ?C0157:
004F EF                MOV     A,R7
0050 7002              JNZ     ?C0158
                                           ; SOURCE LINE # 292
0052 C2C5              CLR     IEX6
0054         ?C0147:
                                           ; SOURCE LINE # 295
0054         ?C0158:
0054 D007              POP     AR7
0056 D0D0              POP     PSW
0058 D0E0              POP     ACC
005A 32                RETI    
             ; FUNCTION RTCInterrupt (END)

             ; FUNCTION LDV18Interrupt (BEGIN)
0000 C0E0              PUSH    ACC
0002 C0D0              PUSH    PSW
0004 75D000            MOV     PSW,#00H
0007 C007              PUSH    AR7
                                           ; SOURCE LINE # 298
C51 COMPILER V9.54   INTERRUPT                                                             10/06/2018 17:27:39 PAGE 26  

                                           ; SOURCE LINE # 301
0009 53FEFC            ANL     INT_REG4,#0FCH
                                           ; SOURCE LINE # 302
000C E5FE              MOV     A,INT_REG4
000E 30E004            JNB     ACC.0,?C0160
0011 7F01              MOV     R7,#01H
0013 8002              SJMP    ?C0161
0015         ?C0160:
0015 7F00              MOV     R7,#00H
0017         ?C0161:
0017 EF                MOV     A,R7
0018 703A              JNZ     ?C0170
001A E5FE              MOV     A,INT_REG4
001C 30E104            JNB     ACC.1,?C0162
001F 7F01              MOV     R7,#01H
0021 8002              SJMP    ?C0163
0023         ?C0162:
0023 7F00              MOV     R7,#00H
0025         ?C0163:
0025 EF                MOV     A,R7
0026 702C              JNZ     ?C0170
0028 E5FE              MOV     A,INT_REG4
002A 30E204            JNB     ACC.2,?C0164
002D 7F01              MOV     R7,#01H
002F 8002              SJMP    ?C0165
0031         ?C0164:
0031 7F00              MOV     R7,#00H
0033         ?C0165:
0033 EF                MOV     A,R7
0034 701E              JNZ     ?C0170
0036 E5FE              MOV     A,INT_REG4
0038 30E304            JNB     ACC.3,?C0166
003B 7F01              MOV     R7,#01H
003D 8002              SJMP    ?C0167
003F         ?C0166:
003F 7F00              MOV     R7,#00H
0041         ?C0167:
0041 EF                MOV     A,R7
0042 7010              JNZ     ?C0170
0044 E593              MOV     A,BPCTRL
0046 30E704            JNB     ACC.7,?C0168
0049 7F01              MOV     R7,#01H
004B 8002              SJMP    ?C0169
004D         ?C0168:
004D 7F00              MOV     R7,#00H
004F         ?C0169:
004F EF                MOV     A,R7
0050 7002              JNZ     ?C0170
                                           ; SOURCE LINE # 303
0052 C2C5              CLR     IEX6
0054         ?C0159:
                                           ; SOURCE LINE # 306
0054         ?C0170:
0054 D007              POP     AR7
0056 D0D0              POP     PSW
0058 D0E0              POP     ACC
005A 32                RETI    
             ; FUNCTION LDV18Interrupt (END)

             ; FUNCTION LDV33Interrupt (BEGIN)
0000 C0E0              PUSH    ACC
0002 C0D0              PUSH    PSW
C51 COMPILER V9.54   INTERRUPT                                                             10/06/2018 17:27:39 PAGE 27  

0004 75D000            MOV     PSW,#00H
0007 C007              PUSH    AR7
                                           ; SOURCE LINE # 308
                                           ; SOURCE LINE # 311
0009 53FEF8            ANL     INT_REG4,#0F8H
                                           ; SOURCE LINE # 313
000C E5FE              MOV     A,INT_REG4
000E 30E004            JNB     ACC.0,?C0172
0011 7F01              MOV     R7,#01H
0013 8002              SJMP    ?C0173
0015         ?C0172:
0015 7F00              MOV     R7,#00H
0017         ?C0173:
0017 EF                MOV     A,R7
0018 703A              JNZ     ?C0182
001A E5FE              MOV     A,INT_REG4
001C 30E104            JNB     ACC.1,?C0174
001F 7F01              MOV     R7,#01H
0021 8002              SJMP    ?C0175
0023         ?C0174:
0023 7F00              MOV     R7,#00H
0025         ?C0175:
0025 EF                MOV     A,R7
0026 702C              JNZ     ?C0182
0028 E5FE              MOV     A,INT_REG4
002A 30E204            JNB     ACC.2,?C0176
002D 7F01              MOV     R7,#01H
002F 8002              SJMP    ?C0177
0031         ?C0176:
0031 7F00              MOV     R7,#00H
0033         ?C0177:
0033 EF                MOV     A,R7
0034 701E              JNZ     ?C0182
0036 E5FE              MOV     A,INT_REG4
0038 30E304            JNB     ACC.3,?C0178
003B 7F01              MOV     R7,#01H
003D 8002              SJMP    ?C0179
003F         ?C0178:
003F 7F00              MOV     R7,#00H
0041         ?C0179:
0041 EF                MOV     A,R7
0042 7010              JNZ     ?C0182
0044 E593              MOV     A,BPCTRL
0046 30E704            JNB     ACC.7,?C0180
0049 7F01              MOV     R7,#01H
004B 8002              SJMP    ?C0181
004D         ?C0180:
004D 7F00              MOV     R7,#00H
004F         ?C0181:
004F EF                MOV     A,R7
0050 7002              JNZ     ?C0182
                                           ; SOURCE LINE # 314
0052 C2C5              CLR     IEX6
0054         ?C0171:
                                           ; SOURCE LINE # 316
0054         ?C0182:
0054 D007              POP     AR7
0056 D0D0              POP     PSW
0058 D0E0              POP     ACC
005A 32                RETI    
             ; FUNCTION LDV33Interrupt (END)

C51 COMPILER V9.54   INTERRUPT                                                             10/06/2018 17:27:39 PAGE 28  

             ; FUNCTION UART1Interrupt (BEGIN)
                                           ; SOURCE LINE # 325
                                           ; SOURCE LINE # 326
                                           ; SOURCE LINE # 327
0000 309802            JNB     RI0,?C0183
                                           ; SOURCE LINE # 328
                                           ; SOURCE LINE # 329
0003 C298              CLR     RI0
                                           ; SOURCE LINE # 330
0005         ?C0183:
                                           ; SOURCE LINE # 332
0005 309902            JNB     TI0,?C0185
                                           ; SOURCE LINE # 333
                                           ; SOURCE LINE # 334
0008 C299              CLR     TI0
                                           ; SOURCE LINE # 335
000A         ?C0184:
                                           ; SOURCE LINE # 336
000A         ?C0185:
000A 22                RET     
             ; FUNCTION UART1Interrupt (END)

             ; FUNCTION UART2Interrupt (BEGIN)
0000 C0E0              PUSH    ACC
                                           ; SOURCE LINE # 338
                                           ; SOURCE LINE # 341
0002 E59B              MOV     A,S1CON
0004 30E003            JNB     ACC.0,?C0186
                                           ; SOURCE LINE # 342
                                           ; SOURCE LINE # 343
0007 539BFE            ANL     S1CON,#0FEH
                                           ; SOURCE LINE # 348
000A         ?C0186:
                                           ; SOURCE LINE # 351
000A E59B              MOV     A,S1CON
000C 30E103            JNB     ACC.1,?C0188
                                           ; SOURCE LINE # 352
                                           ; SOURCE LINE # 353
000F 539BFD            ANL     S1CON,#0FDH
                                           ; SOURCE LINE # 354
0012         ?C0187:
                                           ; SOURCE LINE # 355
0012         ?C0188:
0012 D0E0              POP     ACC
0014 32                RETI    
             ; FUNCTION UART2Interrupt (END)

             ; FUNCTION ADCInterrupt (BEGIN)
0000 C0E0              PUSH    ACC
0002 C083              PUSH    DPH
0004 C082              PUSH    DPL
0006 C0D0              PUSH    PSW
0008 75D000            MOV     PSW,#00H
000B C007              PUSH    AR7
                                           ; SOURCE LINE # 357
                                           ; SOURCE LINE # 360
000D 90E05B            MOV     DPTR,#0E05BH
0010 E0                MOVX    A,@DPTR
0011 FF                MOV     R7,A
0012 EF                MOV     A,R7
0013 30E00D            JNB     ACC.0,?C0189
                                           ; SOURCE LINE # 361
C51 COMPILER V9.54   INTERRUPT                                                             10/06/2018 17:27:39 PAGE 29  

                                           ; SOURCE LINE # 362
0016 90E05B            MOV     DPTR,#0E05BH
0019 E0                MOVX    A,@DPTR
001A FF                MOV     R7,A
001B EF                MOV     A,R7
001C 54FE              ANL     A,#0FEH
001E FF                MOV     R7,A
001F EF                MOV     A,R7
0020 F0                MOVX    @DPTR,A
                                           ; SOURCE LINE # 363
0021 C2C0              CLR     IADC
                                           ; SOURCE LINE # 364
0023         ?C0189:
                                           ; SOURCE LINE # 366
0023 90E072            MOV     DPTR,#0E072H
0026 E0                MOVX    A,@DPTR
0027 F500        E     MOV     ADresult,A
0029 A3                INC     DPTR
002A E0                MOVX    A,@DPTR
002B F500        E     MOV     ADresult+01H,A
                                           ; SOURCE LINE # 369
002D         ?C0190:
002D D007              POP     AR7
002F D0D0              POP     PSW
0031 D082              POP     DPL
0033 D083              POP     DPH
0035 D0E0              POP     ACC
0037 32                RETI    
             ; FUNCTION ADCInterrupt (END)



MODULE INFORMATION:   STATIC OVERLAYABLE
   CODE SIZE        =   1729    ----
   CONSTANT SIZE    =   ----    ----
   XDATA SIZE       =   ----    ----
   PDATA SIZE       =   ----    ----
   DATA SIZE        =   ----    ----
   IDATA SIZE       =   ----    ----
   BIT SIZE         =   ----    ----
END OF MODULE INFORMATION.


C51 COMPILATION COMPLETE.  0 WARNING(S),  0 ERROR(S)
