C51 COMPILER V9.53.0.0   IQMATHLIB                                                         11/25/2018 09:03:46 PAGE 1   


C51 COMPILER V9.53.0.0, COMPILATION OF MODULE IQMATHLIB
OBJECT MODULE PLACED IN .\OUTPUT\IQmathLib.obj
COMPILER INVOKED BY: C:\Keil\C51\BIN\C51.EXE SRC\IQmathLib.c OPTIMIZE(0,SPEED) REGFILE(.\OUTPUT\motor.ORC) BROWSE INTVEC
                    -TOR(0X2000) INCDIR(.\INC) DEBUG OBJECTEXTEND CODE PRINT(.\files\IQmathLib.lst) TABS(2) OBJECT(.\OUTPUT\IQmathLib.obj)

line level    source

   1          /*
   2           * lib.c
   3           *  Copy Right (c) of JE
   4           *  Created on: 
   5           *      18 Sep 2018
   6           *  Author: 
   7           *      Ken
   8           *  Last Modified: 
   9           *     
  10           *  Description: 
  11           *      lib for JE8MCU
  12           *  History:
  13           *      ver 0.1 created by ken on 12 August 2016 
  14           *
  15           *    Use math table for fuctions of 
  16           *        sin, cos, inverse, sqrt, artan
  17           *        Park transform and Clark transform
  18           *
  19           *
  20           */
  21           
  22           /***************************************************
  23           * Includes
  24           */
  25          
  26          #include <intrins.h>   
  27          #include <absacc.h>
  28          #include "register.h"
  29          #include "IQmathLib.h"
  30          
  31          
  32          
  33          
  34          
  35          
  36          
  37          
  38          
  39          
  40          /*
  41           * @fn    sin16
  42           *
  43           * @brief sin16
  44           * 
  45           * @param none
  46           * sin(x) , where x is 
  47          
  48           *
  49           * @return  none
  50           */
  51          
  52          
  53          _iq _IQsin(_iq dat)
  54          {
C51 COMPILER V9.53.0.0   IQMATHLIB                                                         11/25/2018 09:03:46 PAGE 2   

  55   1      volatile _iq angle_in,sin_out;
  56   1      volatile U32 table_input;
  57   1         
  58   1        angle_in=_IQabs(dat);
  59   1            
  60   1        //limit the search anlge to <360)
  61   1        
  62   1        while (angle_in>=_IQ(360.0))
  63   1            {
  64   2              angle_in-=_IQ(360.0);
  65   2            }
  66   1        
  67   1        // convert angle to data in sin table, angle =angle/360 * 512  or  =angle *64/45
  68   1            
  69   1        table_input=_IQint(angle_in<<6); 
  70   1        table_input/=45;  
  71   1       
  72   1        sin_out=XWORD[table_input+sin_table];
  73   1            sin_out=(sin_out<<16);                      //sin table is in Q15 format, it need to convert to Q31 first by shi
             -fting 16 bit to left
  74   1            sin_out=(sin_out) >> (31 - GLOBAL_Q);       //convert Q31 to global Q format
  75   1        
  76   1        if (dat<0) sin_out=-(sin_out);
  77   1       
  78   1      
  79   1        
  80   1      return sin_out ;
  81   1        
  82   1      }
  83          
  84          
  85          
  86          
  87          
  88          _iq _IQcos(_iq dat)
  89          {
  90   1        
  91   1      volatile _iq angle_in,cos_out;
  92   1      volatile U32 table_input;
  93   1         
  94   1      
  95   1        angle_in=_IQabs(dat);
  96   1            
  97   1        //limit the search anlge to <360)
  98   1        
  99   1        while (angle_in>=_IQ(360.0))
 100   1            {
 101   2              angle_in-=_IQ(360.0);
 102   2            }
 103   1        
 104   1        // convert angle to data in cos table, cos(angle) =sin(angle+90)
 105   1            
 106   1        table_input=_IQint(angle_in<<6); 
 107   1        table_input/=45;
 108   1      
 109   1       
 110   1        cos_out=XWORD[table_input+sin_table+128];            //cos is  lead sin by 90
 111   1       
 112   1        
 113   1        cos_out=(cos_out<<16);                      //sin table is in Q15 format, it need to convert to Q31 first by shift
             -ing 16 bit to left
 114   1        cos_out=(cos_out) >> (31 - GLOBAL_Q);       //convert Q31 to global Q format
C51 COMPILER V9.53.0.0   IQMATHLIB                                                         11/25/2018 09:03:46 PAGE 3   

 115   1            
 116   1      return cos_out ;
 117   1        
 118   1      }
 119          
 120          
 121          
 122          
 123          
 124          
 125          
 126          _iq Normalize(_iq dat)              //normalize only work for positive value. it return error if the MD3_7
             -=1 
 127          {
 128   1       Long_Data LD;
 129   1       LD.Ldata =dat;
 130   1       MD0 = LD.ss1.Byte0;
 131   1       MD1 = LD.ss1.Byte1;
 132   1       MD2 = LD.ss1.Byte2;
 133   1       MD3 = LD.ss1.Byte3;
 134   1        
 135   1      
 136   1        
 137   1       ARCON = 0x00 ; // Start Normalizing
 138   1       while(MD3_7==0 ); //check MDU finish flag
 139   1        LD.ss1.Byte0=MD0;
 140   1        LD.ss1.Byte1=MD1;
 141   1        LD.ss1.Byte2=MD2;
 142   1        LD.ss1.Byte3=MD3;
 143   1       
 144   1         return LD.Ldata ;
 145   1      }
 146          
 147          
 148          _iq _IQinv(_iq dat)
 149          
 150          {
 151   1      volatile _iq inverse_in, inverse_out;
 152   1        volatile U32 table_input;
 153   1      volatile S8  index;
 154   1        
 155   1        inverse_in=_IQabs(dat);
 156   1        
 157   1      
 158   1        inverse_in=Normalize(inverse_in);   //convert to Q30 format
 159   1        index=(30-GLOBAL_Q-ARCON);          //find the power index of normalized value
 160   1        inverse_in &=0x7fffffff;            
 161   1        table_input=inverse_in>>22;         //take the 9 bit value for table search
 162   1        inverse_out=XWORD[table_input+inverse_table];  //read from the ROM table
 163   1        inverse_out=inverse_out<<16;
 164   1        inverse_out=(inverse_out) >> (31 - GLOBAL_Q);       //convert Q31 to global Q format
 165   1        
 166   1        if (index>=0)   
 167   1          inverse_out=(inverse_out)>>index;
 168   1          else 
 169   1          inverse_out=inverse_out<<(-index);
 170   1                                                     //multiply the index and return the output value
 171   1        if (dat<0) inverse_out=- inverse_out;
 172   1        
 173   1        
 174   1      return inverse_out;
 175   1      }
C51 COMPILER V9.53.0.0   IQMATHLIB                                                         11/25/2018 09:03:46 PAGE 4   

 176          
 177          
 178          _iq _IQsqrt(_iq dat)
 179          
 180          {
 181   1      volatile _iq sqrt_in, sqrt_out;
 182   1        volatile U32 table_input;
 183   1      volatile S8  power;
 184   1        
 185   1        sqrt_in=_IQabs(dat);
 186   1        sqrt_in=Normalize(sqrt_in);   //convert to Q30 format
 187   1        power=(31-GLOBAL_Q-ARCON);
 188   1        
 189   1      
 190   1        if (power %2==0)                //check if the power is even or  odd value
 191   1          
 192   1        {
 193   2        sqrt_in &=0x7fffffff;
 194   2        table_input=(sqrt_in>>23)+128;  
 195   2          
 196   2          sqrt_out=XWORD[table_input+sqrt_table];
 197   2        }
 198   1        else
 199   1        {
 200   2          power=power+1;                             //if the power is odd value , divide t by 2
 201   2        
 202   2          table_input =sqrt_in>>24;             //square root in value is divided by 2 
 203   2          table_input &=0x0000007f;
 204   2          sqrt_out=XWORD[table_input+sqrt_table];
 205   2        }
 206   1        sqrt_out=sqrt_out<<16;
 207   1        sqrt_out=(sqrt_out) >> (30 - GLOBAL_Q);       //convert Q31 to global Q format
 208   1        
 209   1        if (power>=0)
 210   1        sqrt_out=(sqrt_out)<<(power>>1);
 211   1        else sqrt_out=sqrt_out>>((-power)>>1);
 212   1        
 213   1      
 214   1        
 215   1        
 216   1      return  sqrt_out;
 217   1      }
C51 COMPILER V9.53.0.0   IQMATHLIB                                                         11/25/2018 09:03:46 PAGE 5   

ASSEMBLY LISTING OF GENERATED OBJECT CODE


             ; FUNCTION __IQ16sin (BEGIN)
                                           ; SOURCE LINE # 53
0000 8F00        R     MOV     dat+03H,R7
0002 8E00        R     MOV     dat+02H,R6
0004 8D00        R     MOV     dat+01H,R5
0006 8C00        R     MOV     dat,R4
                                           ; SOURCE LINE # 54
                                           ; SOURCE LINE # 58
0008 7F00              MOV     R7,#00H
000A 7E00              MOV     R6,#00H
000C 7D00              MOV     R5,#00H
000E 7C00              MOV     R4,#00H
0010 AB00        R     MOV     R3,dat+03H
0012 AA00        R     MOV     R2,dat+02H
0014 A900        R     MOV     R1,dat+01H
0016 A800        R     MOV     R0,dat
0018 C3                CLR     C
0019 120000      E     LCALL   ?C?SLCMP
001C 500D              JNC     ?C0001
001E AF00        R     MOV     R7,dat+03H
0020 AE00        R     MOV     R6,dat+02H
0022 AD00        R     MOV     R5,dat+01H
0024 AC00        R     MOV     R4,dat
0026 120000      E     LCALL   ?C?LNEG
0029 8008              SJMP    ?C0002
002B         ?C0001:
002B AF00        R     MOV     R7,dat+03H
002D AE00        R     MOV     R6,dat+02H
002F AD00        R     MOV     R5,dat+01H
0031 AC00        R     MOV     R4,dat
0033         ?C0002:
0033 8F00        R     MOV     angle_in+03H,R7
0035 8E00        R     MOV     angle_in+02H,R6
0037 8D00        R     MOV     angle_in+01H,R5
0039 8C00        R     MOV     angle_in,R4
003B         ?C0003:
                                           ; SOURCE LINE # 62
003B 7F00              MOV     R7,#00H
003D 7E00              MOV     R6,#00H
003F 7D68              MOV     R5,#068H
0041 7C01              MOV     R4,#01H
0043 AB00        R     MOV     R3,angle_in+03H
0045 AA00        R     MOV     R2,angle_in+02H
0047 A900        R     MOV     R1,angle_in+01H
0049 A800        R     MOV     R0,angle_in
004B C3                CLR     C
004C 120000      E     LCALL   ?C?SLCMP
004F 401B              JC      ?C0004
                                           ; SOURCE LINE # 63
                                           ; SOURCE LINE # 64
0051 C3                CLR     C
0052 E500        R     MOV     A,angle_in+03H
0054 9400              SUBB    A,#00H
0056 F500        R     MOV     angle_in+03H,A
0058 E500        R     MOV     A,angle_in+02H
005A 9400              SUBB    A,#00H
005C F500        R     MOV     angle_in+02H,A
005E E500        R     MOV     A,angle_in+01H
0060 9468              SUBB    A,#068H
C51 COMPILER V9.53.0.0   IQMATHLIB                                                         11/25/2018 09:03:46 PAGE 6   

0062 F500        R     MOV     angle_in+01H,A
0064 E500        R     MOV     A,angle_in
0066 9401              SUBB    A,#01H
0068 F500        R     MOV     angle_in,A
                                           ; SOURCE LINE # 65
006A 80CF              SJMP    ?C0003
006C         ?C0004:
                                           ; SOURCE LINE # 69
006C AF00        R     MOV     R7,angle_in+03H
006E AE00        R     MOV     R6,angle_in+02H
0070 AD00        R     MOV     R5,angle_in+01H
0072 AC00        R     MOV     R4,angle_in
0074 7806              MOV     R0,#06H
0076 120000      E     LCALL   ?C?LSHL
0079 7810              MOV     R0,#010H
007B 120000      E     LCALL   ?C?SLSHR
007E 8F00        R     MOV     table_input+03H,R7
0080 8E00        R     MOV     table_input+02H,R6
0082 8D00        R     MOV     table_input+01H,R5
0084 8C00        R     MOV     table_input,R4
                                           ; SOURCE LINE # 70
0086 AF00        R     MOV     R7,table_input+03H
0088 AE00        R     MOV     R6,table_input+02H
008A AD00        R     MOV     R5,table_input+01H
008C AC00        R     MOV     R4,table_input
008E 7B2D              MOV     R3,#02DH
0090 7A00              MOV     R2,#00H
0092 7900              MOV     R1,#00H
0094 7800              MOV     R0,#00H
0096 120000      E     LCALL   ?C?ULDIV
0099 8F00        R     MOV     table_input+03H,R7
009B 8E00        R     MOV     table_input+02H,R6
009D 8D00        R     MOV     table_input+01H,R5
009F 8C00        R     MOV     table_input,R4
                                           ; SOURCE LINE # 72
00A1 7F02              MOV     R7,#02H
00A3 7E00              MOV     R6,#00H
00A5 7D00              MOV     R5,#00H
00A7 7C00              MOV     R4,#00H
00A9 AB00        R     MOV     R3,table_input+03H
00AB AA00        R     MOV     R2,table_input+02H
00AD A900        R     MOV     R1,table_input+01H
00AF A800        R     MOV     R0,table_input
00B1 120000      E     LCALL   ?C?LMUL
00B4 8F82              MOV     DPL,R7
00B6 8E83              MOV     DPH,R6
00B8 E0                MOVX    A,@DPTR
00B9 FE                MOV     R6,A
00BA A3                INC     DPTR
00BB E0                MOVX    A,@DPTR
00BC FF                MOV     R7,A
00BD E4                CLR     A
00BE FC                MOV     R4,A
00BF FD                MOV     R5,A
00C0 8F00        R     MOV     sin_out+03H,R7
00C2 8E00        R     MOV     sin_out+02H,R6
00C4 8D00        R     MOV     sin_out+01H,R5
00C6 8C00        R     MOV     sin_out,R4
                                           ; SOURCE LINE # 73
00C8 AF00        R     MOV     R7,sin_out+03H
00CA AE00        R     MOV     R6,sin_out+02H
00CC AD00        R     MOV     R5,sin_out+01H
C51 COMPILER V9.53.0.0   IQMATHLIB                                                         11/25/2018 09:03:46 PAGE 7   

00CE AC00        R     MOV     R4,sin_out
00D0 7810              MOV     R0,#010H
00D2 120000      E     LCALL   ?C?LSHL
00D5 8F00        R     MOV     sin_out+03H,R7
00D7 8E00        R     MOV     sin_out+02H,R6
00D9 8D00        R     MOV     sin_out+01H,R5
00DB 8C00        R     MOV     sin_out,R4
                                           ; SOURCE LINE # 74
00DD AF00        R     MOV     R7,sin_out+03H
00DF AE00        R     MOV     R6,sin_out+02H
00E1 AD00        R     MOV     R5,sin_out+01H
00E3 AC00        R     MOV     R4,sin_out
00E5 780F              MOV     R0,#0FH
00E7 120000      E     LCALL   ?C?SLSHR
00EA 8F00        R     MOV     sin_out+03H,R7
00EC 8E00        R     MOV     sin_out+02H,R6
00EE 8D00        R     MOV     sin_out+01H,R5
00F0 8C00        R     MOV     sin_out,R4
                                           ; SOURCE LINE # 76
00F2 7F00              MOV     R7,#00H
00F4 7E00              MOV     R6,#00H
00F6 7D00              MOV     R5,#00H
00F8 7C00              MOV     R4,#00H
00FA AB00        R     MOV     R3,dat+03H
00FC AA00        R     MOV     R2,dat+02H
00FE A900        R     MOV     R1,dat+01H
0100 A800        R     MOV     R0,dat
0102 C3                CLR     C
0103 120000      E     LCALL   ?C?SLCMP
0106 5013              JNC     ?C0005
0108 AF00        R     MOV     R7,sin_out+03H
010A AE00        R     MOV     R6,sin_out+02H
010C AD00        R     MOV     R5,sin_out+01H
010E AC00        R     MOV     R4,sin_out
0110 120000      E     LCALL   ?C?LNEG
0113 8F00        R     MOV     sin_out+03H,R7
0115 8E00        R     MOV     sin_out+02H,R6
0117 8D00        R     MOV     sin_out+01H,R5
0119 8C00        R     MOV     sin_out,R4
011B         ?C0005:
                                           ; SOURCE LINE # 80
011B AF00        R     MOV     R7,sin_out+03H
011D AE00        R     MOV     R6,sin_out+02H
011F AD00        R     MOV     R5,sin_out+01H
0121 AC00        R     MOV     R4,sin_out
                                           ; SOURCE LINE # 82
0123         ?C0006:
0123 22                RET     
             ; FUNCTION __IQ16sin (END)

             ; FUNCTION __IQ16cos (BEGIN)
                                           ; SOURCE LINE # 88
0000 8F00        R     MOV     dat+03H,R7
0002 8E00        R     MOV     dat+02H,R6
0004 8D00        R     MOV     dat+01H,R5
0006 8C00        R     MOV     dat,R4
                                           ; SOURCE LINE # 89
                                           ; SOURCE LINE # 95
0008 7F00              MOV     R7,#00H
000A 7E00              MOV     R6,#00H
000C 7D00              MOV     R5,#00H
000E 7C00              MOV     R4,#00H
C51 COMPILER V9.53.0.0   IQMATHLIB                                                         11/25/2018 09:03:46 PAGE 8   

0010 AB00        R     MOV     R3,dat+03H
0012 AA00        R     MOV     R2,dat+02H
0014 A900        R     MOV     R1,dat+01H
0016 A800        R     MOV     R0,dat
0018 C3                CLR     C
0019 120000      E     LCALL   ?C?SLCMP
001C 500D              JNC     ?C0007
001E AF00        R     MOV     R7,dat+03H
0020 AE00        R     MOV     R6,dat+02H
0022 AD00        R     MOV     R5,dat+01H
0024 AC00        R     MOV     R4,dat
0026 120000      E     LCALL   ?C?LNEG
0029 8008              SJMP    ?C0008
002B         ?C0007:
002B AF00        R     MOV     R7,dat+03H
002D AE00        R     MOV     R6,dat+02H
002F AD00        R     MOV     R5,dat+01H
0031 AC00        R     MOV     R4,dat
0033         ?C0008:
0033 8F00        R     MOV     angle_in+03H,R7
0035 8E00        R     MOV     angle_in+02H,R6
0037 8D00        R     MOV     angle_in+01H,R5
0039 8C00        R     MOV     angle_in,R4
003B         ?C0009:
                                           ; SOURCE LINE # 99
003B 7F00              MOV     R7,#00H
003D 7E00              MOV     R6,#00H
003F 7D68              MOV     R5,#068H
0041 7C01              MOV     R4,#01H
0043 AB00        R     MOV     R3,angle_in+03H
0045 AA00        R     MOV     R2,angle_in+02H
0047 A900        R     MOV     R1,angle_in+01H
0049 A800        R     MOV     R0,angle_in
004B C3                CLR     C
004C 120000      E     LCALL   ?C?SLCMP
004F 401B              JC      ?C0010
                                           ; SOURCE LINE # 100
                                           ; SOURCE LINE # 101
0051 C3                CLR     C
0052 E500        R     MOV     A,angle_in+03H
0054 9400              SUBB    A,#00H
0056 F500        R     MOV     angle_in+03H,A
0058 E500        R     MOV     A,angle_in+02H
005A 9400              SUBB    A,#00H
005C F500        R     MOV     angle_in+02H,A
005E E500        R     MOV     A,angle_in+01H
0060 9468              SUBB    A,#068H
0062 F500        R     MOV     angle_in+01H,A
0064 E500        R     MOV     A,angle_in
0066 9401              SUBB    A,#01H
0068 F500        R     MOV     angle_in,A
                                           ; SOURCE LINE # 102
006A 80CF              SJMP    ?C0009
006C         ?C0010:
                                           ; SOURCE LINE # 106
006C AF00        R     MOV     R7,angle_in+03H
006E AE00        R     MOV     R6,angle_in+02H
0070 AD00        R     MOV     R5,angle_in+01H
0072 AC00        R     MOV     R4,angle_in
0074 7806              MOV     R0,#06H
0076 120000      E     LCALL   ?C?LSHL
0079 7810              MOV     R0,#010H
C51 COMPILER V9.53.0.0   IQMATHLIB                                                         11/25/2018 09:03:46 PAGE 9   

007B 120000      E     LCALL   ?C?SLSHR
007E 8F00        R     MOV     table_input+03H,R7
0080 8E00        R     MOV     table_input+02H,R6
0082 8D00        R     MOV     table_input+01H,R5
0084 8C00        R     MOV     table_input,R4
                                           ; SOURCE LINE # 107
0086 AF00        R     MOV     R7,table_input+03H
0088 AE00        R     MOV     R6,table_input+02H
008A AD00        R     MOV     R5,table_input+01H
008C AC00        R     MOV     R4,table_input
008E 7B2D              MOV     R3,#02DH
0090 7A00              MOV     R2,#00H
0092 7900              MOV     R1,#00H
0094 7800              MOV     R0,#00H
0096 120000      E     LCALL   ?C?ULDIV
0099 8F00        R     MOV     table_input+03H,R7
009B 8E00        R     MOV     table_input+02H,R6
009D 8D00        R     MOV     table_input+01H,R5
009F 8C00        R     MOV     table_input,R4
                                           ; SOURCE LINE # 110
00A1 7F02              MOV     R7,#02H
00A3 7E00              MOV     R6,#00H
00A5 7D00              MOV     R5,#00H
00A7 7C00              MOV     R4,#00H
00A9 AB00        R     MOV     R3,table_input+03H
00AB AA00        R     MOV     R2,table_input+02H
00AD A900        R     MOV     R1,table_input+01H
00AF A800        R     MOV     R0,table_input
00B1 120000      E     LCALL   ?C?LMUL
00B4 E4                CLR     A
00B5 2F                ADD     A,R7
00B6 F582              MOV     DPL,A
00B8 7401              MOV     A,#01H
00BA 3E                ADDC    A,R6
00BB F583              MOV     DPH,A
00BD E0                MOVX    A,@DPTR
00BE FE                MOV     R6,A
00BF A3                INC     DPTR
00C0 E0                MOVX    A,@DPTR
00C1 FF                MOV     R7,A
00C2 E4                CLR     A
00C3 FC                MOV     R4,A
00C4 FD                MOV     R5,A
00C5 8F00        R     MOV     cos_out+03H,R7
00C7 8E00        R     MOV     cos_out+02H,R6
00C9 8D00        R     MOV     cos_out+01H,R5
00CB 8C00        R     MOV     cos_out,R4
                                           ; SOURCE LINE # 113
00CD AF00        R     MOV     R7,cos_out+03H
00CF AE00        R     MOV     R6,cos_out+02H
00D1 AD00        R     MOV     R5,cos_out+01H
00D3 AC00        R     MOV     R4,cos_out
00D5 7810              MOV     R0,#010H
00D7 120000      E     LCALL   ?C?LSHL
00DA 8F00        R     MOV     cos_out+03H,R7
00DC 8E00        R     MOV     cos_out+02H,R6
00DE 8D00        R     MOV     cos_out+01H,R5
00E0 8C00        R     MOV     cos_out,R4
                                           ; SOURCE LINE # 114
00E2 AF00        R     MOV     R7,cos_out+03H
00E4 AE00        R     MOV     R6,cos_out+02H
00E6 AD00        R     MOV     R5,cos_out+01H
C51 COMPILER V9.53.0.0   IQMATHLIB                                                         11/25/2018 09:03:46 PAGE 10  

00E8 AC00        R     MOV     R4,cos_out
00EA 780F              MOV     R0,#0FH
00EC 120000      E     LCALL   ?C?SLSHR
00EF 8F00        R     MOV     cos_out+03H,R7
00F1 8E00        R     MOV     cos_out+02H,R6
00F3 8D00        R     MOV     cos_out+01H,R5
00F5 8C00        R     MOV     cos_out,R4
                                           ; SOURCE LINE # 116
00F7 AF00        R     MOV     R7,cos_out+03H
00F9 AE00        R     MOV     R6,cos_out+02H
00FB AD00        R     MOV     R5,cos_out+01H
00FD AC00        R     MOV     R4,cos_out
                                           ; SOURCE LINE # 118
00FF         ?C0011:
00FF 22                RET     
             ; FUNCTION __IQ16cos (END)

             ; FUNCTION _Normalize (BEGIN)
                                           ; SOURCE LINE # 126
0000 8F00        R     MOV     dat+03H,R7
0002 8E00        R     MOV     dat+02H,R6
0004 8D00        R     MOV     dat+01H,R5
0006 8C00        R     MOV     dat,R4
                                           ; SOURCE LINE # 127
                                           ; SOURCE LINE # 129
0008 AF00        R     MOV     R7,dat+03H
000A AE00        R     MOV     R6,dat+02H
000C AD00        R     MOV     R5,dat+01H
000E AC00        R     MOV     R4,dat
0010 8F00        R     MOV     LD+03H,R7
0012 8E00        R     MOV     LD+02H,R6
0014 8D00        R     MOV     LD+01H,R5
0016 8C00        R     MOV     LD,R4
                                           ; SOURCE LINE # 130
0018 8500E9      R     MOV     MD0,LD+03H
                                           ; SOURCE LINE # 131
001B 8500EA      R     MOV     MD1,LD+02H
                                           ; SOURCE LINE # 132
001E 8500EB      R     MOV     MD2,LD+01H
                                           ; SOURCE LINE # 133
0021 8500EC      R     MOV     MD3,LD
                                           ; SOURCE LINE # 137
0024 75EF00            MOV     ARCON,#00H
0027         ?C0012:
                                           ; SOURCE LINE # 138
0027 E5EC              MOV     A,MD3
0029 30E704            JNB     ACC.7,?C0014
002C 7F01              MOV     R7,#01H
002E 8002              SJMP    ?C0015
0030         ?C0014:
0030 7F00              MOV     R7,#00H
0032         ?C0015:
0032 EF                MOV     A,R7
0033 60F2              JZ      ?C0012
0035         ?C0013:
                                           ; SOURCE LINE # 139
0035 85E900      R     MOV     LD+03H,MD0
                                           ; SOURCE LINE # 140
0038 85EA00      R     MOV     LD+02H,MD1
                                           ; SOURCE LINE # 141
003B 85EB00      R     MOV     LD+01H,MD2
                                           ; SOURCE LINE # 142
C51 COMPILER V9.53.0.0   IQMATHLIB                                                         11/25/2018 09:03:46 PAGE 11  

003E 85EC00      R     MOV     LD,MD3
                                           ; SOURCE LINE # 144
0041 AF00        R     MOV     R7,LD+03H
0043 AE00        R     MOV     R6,LD+02H
0045 AD00        R     MOV     R5,LD+01H
0047 AC00        R     MOV     R4,LD
                                           ; SOURCE LINE # 145
0049         ?C0016:
0049 22                RET     
             ; FUNCTION _Normalize (END)

             ; FUNCTION __IQ16inv (BEGIN)
                                           ; SOURCE LINE # 148
0000 8F00        R     MOV     dat+03H,R7
0002 8E00        R     MOV     dat+02H,R6
0004 8D00        R     MOV     dat+01H,R5
0006 8C00        R     MOV     dat,R4
                                           ; SOURCE LINE # 150
                                           ; SOURCE LINE # 155
0008 7F00              MOV     R7,#00H
000A 7E00              MOV     R6,#00H
000C 7D00              MOV     R5,#00H
000E 7C00              MOV     R4,#00H
0010 AB00        R     MOV     R3,dat+03H
0012 AA00        R     MOV     R2,dat+02H
0014 A900        R     MOV     R1,dat+01H
0016 A800        R     MOV     R0,dat
0018 C3                CLR     C
0019 120000      E     LCALL   ?C?SLCMP
001C 500D              JNC     ?C0017
001E AF00        R     MOV     R7,dat+03H
0020 AE00        R     MOV     R6,dat+02H
0022 AD00        R     MOV     R5,dat+01H
0024 AC00        R     MOV     R4,dat
0026 120000      E     LCALL   ?C?LNEG
0029 8008              SJMP    ?C0018
002B         ?C0017:
002B AF00        R     MOV     R7,dat+03H
002D AE00        R     MOV     R6,dat+02H
002F AD00        R     MOV     R5,dat+01H
0031 AC00        R     MOV     R4,dat
0033         ?C0018:
0033 8F00        R     MOV     inverse_in+03H,R7
0035 8E00        R     MOV     inverse_in+02H,R6
0037 8D00        R     MOV     inverse_in+01H,R5
0039 8C00        R     MOV     inverse_in,R4
                                           ; SOURCE LINE # 158
003B AF00        R     MOV     R7,inverse_in+03H
003D AE00        R     MOV     R6,inverse_in+02H
003F AD00        R     MOV     R5,inverse_in+01H
0041 AC00        R     MOV     R4,inverse_in
0043 120000      R     LCALL   _Normalize
0046 8F00        R     MOV     inverse_in+03H,R7
0048 8E00        R     MOV     inverse_in+02H,R6
004A 8D00        R     MOV     inverse_in+01H,R5
004C 8C00        R     MOV     inverse_in,R4
                                           ; SOURCE LINE # 159
004E C3                CLR     C
004F 740E              MOV     A,#0EH
0051 95EF              SUBB    A,ARCON
0053 F500        R     MOV     index,A
                                           ; SOURCE LINE # 160
C51 COMPILER V9.53.0.0   IQMATHLIB                                                         11/25/2018 09:03:46 PAGE 12  

0055 E500        R     MOV     A,inverse_in+03H
0057 54FF              ANL     A,#0FFH
0059 F500        R     MOV     inverse_in+03H,A
005B E500        R     MOV     A,inverse_in+02H
005D 54FF              ANL     A,#0FFH
005F F500        R     MOV     inverse_in+02H,A
0061 E500        R     MOV     A,inverse_in+01H
0063 54FF              ANL     A,#0FFH
0065 F500        R     MOV     inverse_in+01H,A
0067 E500        R     MOV     A,inverse_in
0069 547F              ANL     A,#07FH
006B F500        R     MOV     inverse_in,A
                                           ; SOURCE LINE # 161
006D AF00        R     MOV     R7,inverse_in+03H
006F AE00        R     MOV     R6,inverse_in+02H
0071 AD00        R     MOV     R5,inverse_in+01H
0073 AC00        R     MOV     R4,inverse_in
0075 7816              MOV     R0,#016H
0077 120000      E     LCALL   ?C?SLSHR
007A 8F00        R     MOV     table_input+03H,R7
007C 8E00        R     MOV     table_input+02H,R6
007E 8D00        R     MOV     table_input+01H,R5
0080 8C00        R     MOV     table_input,R4
                                           ; SOURCE LINE # 162
0082 7F02              MOV     R7,#02H
0084 7E00              MOV     R6,#00H
0086 7D00              MOV     R5,#00H
0088 7C00              MOV     R4,#00H
008A AB00        R     MOV     R3,table_input+03H
008C AA00        R     MOV     R2,table_input+02H
008E A900        R     MOV     R1,table_input+01H
0090 A800        R     MOV     R0,table_input
0092 120000      E     LCALL   ?C?LMUL
0095 E4                CLR     A
0096 2F                ADD     A,R7
0097 F582              MOV     DPL,A
0099 7404              MOV     A,#04H
009B 3E                ADDC    A,R6
009C F583              MOV     DPH,A
009E E0                MOVX    A,@DPTR
009F FE                MOV     R6,A
00A0 A3                INC     DPTR
00A1 E0                MOVX    A,@DPTR
00A2 FF                MOV     R7,A
00A3 E4                CLR     A
00A4 FC                MOV     R4,A
00A5 FD                MOV     R5,A
00A6 8F00        R     MOV     inverse_out+03H,R7
00A8 8E00        R     MOV     inverse_out+02H,R6
00AA 8D00        R     MOV     inverse_out+01H,R5
00AC 8C00        R     MOV     inverse_out,R4
                                           ; SOURCE LINE # 163
00AE AF00        R     MOV     R7,inverse_out+03H
00B0 AE00        R     MOV     R6,inverse_out+02H
00B2 AD00        R     MOV     R5,inverse_out+01H
00B4 AC00        R     MOV     R4,inverse_out
00B6 7810              MOV     R0,#010H
00B8 120000      E     LCALL   ?C?LSHL
00BB 8F00        R     MOV     inverse_out+03H,R7
00BD 8E00        R     MOV     inverse_out+02H,R6
00BF 8D00        R     MOV     inverse_out+01H,R5
00C1 8C00        R     MOV     inverse_out,R4
C51 COMPILER V9.53.0.0   IQMATHLIB                                                         11/25/2018 09:03:46 PAGE 13  

                                           ; SOURCE LINE # 164
00C3 AF00        R     MOV     R7,inverse_out+03H
00C5 AE00        R     MOV     R6,inverse_out+02H
00C7 AD00        R     MOV     R5,inverse_out+01H
00C9 AC00        R     MOV     R4,inverse_out
00CB 780F              MOV     R0,#0FH
00CD 120000      E     LCALL   ?C?SLSHR
00D0 8F00        R     MOV     inverse_out+03H,R7
00D2 8E00        R     MOV     inverse_out+02H,R6
00D4 8D00        R     MOV     inverse_out+01H,R5
00D6 8C00        R     MOV     inverse_out,R4
                                           ; SOURCE LINE # 166
00D8 C3                CLR     C
00D9 E500        R     MOV     A,index
00DB 6480              XRL     A,#080H
00DD 9480              SUBB    A,#080H
00DF 4019              JC      ?C0019
                                           ; SOURCE LINE # 167
00E1 AF00        R     MOV     R7,inverse_out+03H
00E3 AE00        R     MOV     R6,inverse_out+02H
00E5 AD00        R     MOV     R5,inverse_out+01H
00E7 AC00        R     MOV     R4,inverse_out
00E9 A900        R     MOV     R1,index
00EB A801              MOV     R0,AR1
00ED 120000      E     LCALL   ?C?SLSHR
00F0 8F00        R     MOV     inverse_out+03H,R7
00F2 8E00        R     MOV     inverse_out+02H,R6
00F4 8D00        R     MOV     inverse_out+01H,R5
00F6 8C00        R     MOV     inverse_out,R4
00F8 801A              SJMP    ?C0020
00FA         ?C0019:
                                           ; SOURCE LINE # 169
00FA AF00        R     MOV     R7,inverse_out+03H
00FC AE00        R     MOV     R6,inverse_out+02H
00FE AD00        R     MOV     R5,inverse_out+01H
0100 AC00        R     MOV     R4,inverse_out
0102 E500        R     MOV     A,index
0104 F4                CPL     A
0105 04                INC     A
0106 F9                MOV     R1,A
0107 A801              MOV     R0,AR1
0109 120000      E     LCALL   ?C?LSHL
010C 8F00        R     MOV     inverse_out+03H,R7
010E 8E00        R     MOV     inverse_out+02H,R6
0110 8D00        R     MOV     inverse_out+01H,R5
0112 8C00        R     MOV     inverse_out,R4
0114         ?C0020:
                                           ; SOURCE LINE # 171
0114 7F00              MOV     R7,#00H
0116 7E00              MOV     R6,#00H
0118 7D00              MOV     R5,#00H
011A 7C00              MOV     R4,#00H
011C AB00        R     MOV     R3,dat+03H
011E AA00        R     MOV     R2,dat+02H
0120 A900        R     MOV     R1,dat+01H
0122 A800        R     MOV     R0,dat
0124 C3                CLR     C
0125 120000      E     LCALL   ?C?SLCMP
0128 5013              JNC     ?C0021
012A AF00        R     MOV     R7,inverse_out+03H
012C AE00        R     MOV     R6,inverse_out+02H
012E AD00        R     MOV     R5,inverse_out+01H
C51 COMPILER V9.53.0.0   IQMATHLIB                                                         11/25/2018 09:03:46 PAGE 14  

0130 AC00        R     MOV     R4,inverse_out
0132 120000      E     LCALL   ?C?LNEG
0135 8F00        R     MOV     inverse_out+03H,R7
0137 8E00        R     MOV     inverse_out+02H,R6
0139 8D00        R     MOV     inverse_out+01H,R5
013B 8C00        R     MOV     inverse_out,R4
013D         ?C0021:
                                           ; SOURCE LINE # 174
013D AF00        R     MOV     R7,inverse_out+03H
013F AE00        R     MOV     R6,inverse_out+02H
0141 AD00        R     MOV     R5,inverse_out+01H
0143 AC00        R     MOV     R4,inverse_out
                                           ; SOURCE LINE # 175
0145         ?C0022:
0145 22                RET     
             ; FUNCTION __IQ16inv (END)

             ; FUNCTION __IQ16sqrt (BEGIN)
                                           ; SOURCE LINE # 178
0000 8F00        R     MOV     dat+03H,R7
0002 8E00        R     MOV     dat+02H,R6
0004 8D00        R     MOV     dat+01H,R5
0006 8C00        R     MOV     dat,R4
                                           ; SOURCE LINE # 180
                                           ; SOURCE LINE # 185
0008 7F00              MOV     R7,#00H
000A 7E00              MOV     R6,#00H
000C 7D00              MOV     R5,#00H
000E 7C00              MOV     R4,#00H
0010 AB00        R     MOV     R3,dat+03H
0012 AA00        R     MOV     R2,dat+02H
0014 A900        R     MOV     R1,dat+01H
0016 A800        R     MOV     R0,dat
0018 C3                CLR     C
0019 120000      E     LCALL   ?C?SLCMP
001C 500D              JNC     ?C0023
001E AF00        R     MOV     R7,dat+03H
0020 AE00        R     MOV     R6,dat+02H
0022 AD00        R     MOV     R5,dat+01H
0024 AC00        R     MOV     R4,dat
0026 120000      E     LCALL   ?C?LNEG
0029 8008              SJMP    ?C0024
002B         ?C0023:
002B AF00        R     MOV     R7,dat+03H
002D AE00        R     MOV     R6,dat+02H
002F AD00        R     MOV     R5,dat+01H
0031 AC00        R     MOV     R4,dat
0033         ?C0024:
0033 8F00        R     MOV     sqrt_in+03H,R7
0035 8E00        R     MOV     sqrt_in+02H,R6
0037 8D00        R     MOV     sqrt_in+01H,R5
0039 8C00        R     MOV     sqrt_in,R4
                                           ; SOURCE LINE # 186
003B AF00        R     MOV     R7,sqrt_in+03H
003D AE00        R     MOV     R6,sqrt_in+02H
003F AD00        R     MOV     R5,sqrt_in+01H
0041 AC00        R     MOV     R4,sqrt_in
0043 120000      R     LCALL   _Normalize
0046 8F00        R     MOV     sqrt_in+03H,R7
0048 8E00        R     MOV     sqrt_in+02H,R6
004A 8D00        R     MOV     sqrt_in+01H,R5
004C 8C00        R     MOV     sqrt_in,R4
C51 COMPILER V9.53.0.0   IQMATHLIB                                                         11/25/2018 09:03:46 PAGE 15  

                                           ; SOURCE LINE # 187
004E C3                CLR     C
004F 740F              MOV     A,#0FH
0051 95EF              SUBB    A,ARCON
0053 F500        R     MOV     power,A
                                           ; SOURCE LINE # 190
0055 E500        R     MOV     A,power
0057 75F002            MOV     B,#02H
005A 120000      E     LCALL   ?C?SCDIV
005D AFF0              MOV     R7,B
005F EF                MOV     A,R7
0060 706B              JNZ     ?C0025
                                           ; SOURCE LINE # 192
                                           ; SOURCE LINE # 193
0062 E500        R     MOV     A,sqrt_in+03H
0064 54FF              ANL     A,#0FFH
0066 F500        R     MOV     sqrt_in+03H,A
0068 E500        R     MOV     A,sqrt_in+02H
006A 54FF              ANL     A,#0FFH
006C F500        R     MOV     sqrt_in+02H,A
006E E500        R     MOV     A,sqrt_in+01H
0070 54FF              ANL     A,#0FFH
0072 F500        R     MOV     sqrt_in+01H,A
0074 E500        R     MOV     A,sqrt_in
0076 547F              ANL     A,#07FH
0078 F500        R     MOV     sqrt_in,A
                                           ; SOURCE LINE # 194
007A AF00        R     MOV     R7,sqrt_in+03H
007C AE00        R     MOV     R6,sqrt_in+02H
007E AD00        R     MOV     R5,sqrt_in+01H
0080 AC00        R     MOV     R4,sqrt_in
0082 7817              MOV     R0,#017H
0084 120000      E     LCALL   ?C?SLSHR
0087 EF                MOV     A,R7
0088 2480              ADD     A,#080H
008A FF                MOV     R7,A
008B EE                MOV     A,R6
008C 3400              ADDC    A,#00H
008E FE                MOV     R6,A
008F ED                MOV     A,R5
0090 3400              ADDC    A,#00H
0092 FD                MOV     R5,A
0093 EC                MOV     A,R4
0094 3400              ADDC    A,#00H
0096 FC                MOV     R4,A
0097 8F00        R     MOV     table_input+03H,R7
0099 8E00        R     MOV     table_input+02H,R6
009B 8D00        R     MOV     table_input+01H,R5
009D 8C00        R     MOV     table_input,R4
                                           ; SOURCE LINE # 196
009F 7F02              MOV     R7,#02H
00A1 7E00              MOV     R6,#00H
00A3 7D00              MOV     R5,#00H
00A5 7C00              MOV     R4,#00H
00A7 AB00        R     MOV     R3,table_input+03H
00A9 AA00        R     MOV     R2,table_input+02H
00AB A900        R     MOV     R1,table_input+01H
00AD A800        R     MOV     R0,table_input
00AF 120000      E     LCALL   ?C?LMUL
00B2 E4                CLR     A
00B3 2F                ADD     A,R7
00B4 F582              MOV     DPL,A
C51 COMPILER V9.53.0.0   IQMATHLIB                                                         11/25/2018 09:03:46 PAGE 16  

00B6 7408              MOV     A,#08H
00B8 3E                ADDC    A,R6
00B9 F583              MOV     DPH,A
00BB E0                MOVX    A,@DPTR
00BC FE                MOV     R6,A
00BD A3                INC     DPTR
00BE E0                MOVX    A,@DPTR
00BF FF                MOV     R7,A
00C0 E4                CLR     A
00C1 FC                MOV     R4,A
00C2 FD                MOV     R5,A
00C3 8F00        R     MOV     sqrt_out+03H,R7
00C5 8E00        R     MOV     sqrt_out+02H,R6
00C7 8D00        R     MOV     sqrt_out+01H,R5
00C9 8C00        R     MOV     sqrt_out,R4
                                           ; SOURCE LINE # 197
00CB 805B              SJMP    ?C0026
00CD         ?C0025:
                                           ; SOURCE LINE # 199
                                           ; SOURCE LINE # 200
00CD 0500        R     INC     power
                                           ; SOURCE LINE # 202
00CF AF00        R     MOV     R7,sqrt_in+03H
00D1 AE00        R     MOV     R6,sqrt_in+02H
00D3 AD00        R     MOV     R5,sqrt_in+01H
00D5 AC00        R     MOV     R4,sqrt_in
00D7 7818              MOV     R0,#018H
00D9 120000      E     LCALL   ?C?SLSHR
00DC 8F00        R     MOV     table_input+03H,R7
00DE 8E00        R     MOV     table_input+02H,R6
00E0 8D00        R     MOV     table_input+01H,R5
00E2 8C00        R     MOV     table_input,R4
                                           ; SOURCE LINE # 203
00E4 E500        R     MOV     A,table_input+03H
00E6 547F              ANL     A,#07FH
00E8 F500        R     MOV     table_input+03H,A
00EA E500        R     MOV     A,table_input+02H
00EC 5400              ANL     A,#00H
00EE F500        R     MOV     table_input+02H,A
00F0 E500        R     MOV     A,table_input+01H
00F2 5400              ANL     A,#00H
00F4 F500        R     MOV     table_input+01H,A
00F6 E500        R     MOV     A,table_input
00F8 5400              ANL     A,#00H
00FA F500        R     MOV     table_input,A
                                           ; SOURCE LINE # 204
00FC 7F02              MOV     R7,#02H
00FE 7E00              MOV     R6,#00H
0100 7D00              MOV     R5,#00H
0102 7C00              MOV     R4,#00H
0104 AB00        R     MOV     R3,table_input+03H
0106 AA00        R     MOV     R2,table_input+02H
0108 A900        R     MOV     R1,table_input+01H
010A A800        R     MOV     R0,table_input
010C 120000      E     LCALL   ?C?LMUL
010F E4                CLR     A
0110 2F                ADD     A,R7
0111 F582              MOV     DPL,A
0113 7408              MOV     A,#08H
0115 3E                ADDC    A,R6
0116 F583              MOV     DPH,A
0118 E0                MOVX    A,@DPTR
C51 COMPILER V9.53.0.0   IQMATHLIB                                                         11/25/2018 09:03:46 PAGE 17  

0119 FE                MOV     R6,A
011A A3                INC     DPTR
011B E0                MOVX    A,@DPTR
011C FF                MOV     R7,A
011D E4                CLR     A
011E FC                MOV     R4,A
011F FD                MOV     R5,A
0120 8F00        R     MOV     sqrt_out+03H,R7
0122 8E00        R     MOV     sqrt_out+02H,R6
0124 8D00        R     MOV     sqrt_out+01H,R5
0126 8C00        R     MOV     sqrt_out,R4
                                           ; SOURCE LINE # 205
0128         ?C0026:
                                           ; SOURCE LINE # 206
0128 AF00        R     MOV     R7,sqrt_out+03H
012A AE00        R     MOV     R6,sqrt_out+02H
012C AD00        R     MOV     R5,sqrt_out+01H
012E AC00        R     MOV     R4,sqrt_out
0130 7810              MOV     R0,#010H
0132 120000      E     LCALL   ?C?LSHL
0135 8F00        R     MOV     sqrt_out+03H,R7
0137 8E00        R     MOV     sqrt_out+02H,R6
0139 8D00        R     MOV     sqrt_out+01H,R5
013B 8C00        R     MOV     sqrt_out,R4
                                           ; SOURCE LINE # 207
013D AF00        R     MOV     R7,sqrt_out+03H
013F AE00        R     MOV     R6,sqrt_out+02H
0141 AD00        R     MOV     R5,sqrt_out+01H
0143 AC00        R     MOV     R4,sqrt_out
0145 780E              MOV     R0,#0EH
0147 120000      E     LCALL   ?C?SLSHR
014A 8F00        R     MOV     sqrt_out+03H,R7
014C 8E00        R     MOV     sqrt_out+02H,R6
014E 8D00        R     MOV     sqrt_out+01H,R5
0150 8C00        R     MOV     sqrt_out,R4
                                           ; SOURCE LINE # 209
0152 C3                CLR     C
0153 E500        R     MOV     A,power
0155 6480              XRL     A,#080H
0157 9480              SUBB    A,#080H
0159 401D              JC      ?C0027
                                           ; SOURCE LINE # 210
015B AF00        R     MOV     R7,sqrt_out+03H
015D AE00        R     MOV     R6,sqrt_out+02H
015F AD00        R     MOV     R5,sqrt_out+01H
0161 AC00        R     MOV     R4,sqrt_out
0163 E500        R     MOV     A,power
0165 A2E7              MOV     C,ACC.7
0167 13                RRC     A
0168 F9                MOV     R1,A
0169 A801              MOV     R0,AR1
016B 120000      E     LCALL   ?C?LSHL
016E 8F00        R     MOV     sqrt_out+03H,R7
0170 8E00        R     MOV     sqrt_out+02H,R6
0172 8D00        R     MOV     sqrt_out+01H,R5
0174 8C00        R     MOV     sqrt_out,R4
0176 801F              SJMP    ?C0028
0178         ?C0027:
                                           ; SOURCE LINE # 211
0178 AF00        R     MOV     R7,sqrt_out+03H
017A AE00        R     MOV     R6,sqrt_out+02H
017C AD00        R     MOV     R5,sqrt_out+01H
C51 COMPILER V9.53.0.0   IQMATHLIB                                                         11/25/2018 09:03:46 PAGE 18  

017E AC00        R     MOV     R4,sqrt_out
0180 E500        R     MOV     A,power
0182 F4                CPL     A
0183 04                INC     A
0184 FB                MOV     R3,A
0185 EB                MOV     A,R3
0186 A2E7              MOV     C,ACC.7
0188 13                RRC     A
0189 F9                MOV     R1,A
018A A801              MOV     R0,AR1
018C 120000      E     LCALL   ?C?SLSHR
018F 8F00        R     MOV     sqrt_out+03H,R7
0191 8E00        R     MOV     sqrt_out+02H,R6
0193 8D00        R     MOV     sqrt_out+01H,R5
0195 8C00        R     MOV     sqrt_out,R4
0197         ?C0028:
                                           ; SOURCE LINE # 216
0197 AF00        R     MOV     R7,sqrt_out+03H
0199 AE00        R     MOV     R6,sqrt_out+02H
019B AD00        R     MOV     R5,sqrt_out+01H
019D AC00        R     MOV     R4,sqrt_out
                                           ; SOURCE LINE # 217
019F         ?C0029:
019F 22                RET     
             ; FUNCTION __IQ16sqrt (END)



MODULE INFORMATION:   STATIC OVERLAYABLE
   CODE SIZE        =   1364    ----
   CONSTANT SIZE    =   ----    ----
   XDATA SIZE       =   ----    ----
   PDATA SIZE       =   ----    ----
   DATA SIZE        =     74    ----
   IDATA SIZE       =   ----    ----
   BIT SIZE         =   ----    ----
END OF MODULE INFORMATION.


C51 COMPILATION COMPLETE.  0 WARNING(S),  0 ERROR(S)
