BL51 BANKED LINKER/LOCATER V6.22                                                        11/08/2018  15:11:09  PAGE 1


BL51 BANKED LINKER/LOCATER V6.22, INVOKED BY:
C:\KEIL_V5\C51\BIN\BL51.EXE .\OUTPUT\STARTUP.obj, .\OUTPUT\main.obj, .\OUTPUT\initial.obj, .\OUTPUT\interrupt.obj, .\OUT
>> PUT\MotorLib.obj, .\OUTPUT\ISD51.obj TO .\OUTPUT\motor REGFILE (.\OUTPUT\motor.ORC) PRINT (.\files\motor.m51) DISABLE
>> WARNING (16) CODE (0X2000-0X9FFF) XDATA (0XA000-0XDFFF)


MEMORY MODEL: SMALL


INPUT MODULES INCLUDED:
  .\OUTPUT\STARTUP.obj (?C_STARTUP)
  .\OUTPUT\main.obj (MAIN)
  .\OUTPUT\initial.obj (INITIAL)
  .\OUTPUT\interrupt.obj (INTERRUPT)
  .\OUTPUT\MotorLib.obj (MOTORLIB)
  .\OUTPUT\ISD51.obj (ISD51_CONFIGURATION)
  C:\KEIL_V5\C51\LIB\C51S.LIB (?C_INIT)
  C:\KEIL_V5\C51\LIB\C51S.LIB (?C?LSHL)
  C:\KEIL_V5\C51\LIB\C51S.LIB (?C?LSTXDATA)
  C:\KEIL_V5\C51\LIB\C51S.LIB (?C?ULSHRR515)
  C:\KEIL_V5\C51\LIB\C51S.LIB (ISD_CORE_FUNCTIONS)
  C:\KEIL_V5\C51\LIB\C51S.LIB (?C?WAITR515)


LINK MAP OF MODULE:  .\OUTPUT\motor (?C_STARTUP)


            TYPE    BASE      LENGTH    RELOCATION   SEGMENT NAME
            -----------------------------------------------------

            * * * * * * *   D A T A   M E M O R Y   * * * * * * *
            REG     0000H     0008H     ABSOLUTE     "REG BANK 0"
            DATA    0008H     000AH     UNIT         ?DT?MOTORLIB
            DATA    0012H     0008H     UNIT         ?DT?_NORMALIZING_WRITE?MOTORLIB
            DATA    001AH     0005H     UNIT         ?DT?_EE_WRITE?MOTORLIB
            DATA    001FH     0001H     UNIT         ?DT?_EE_READ?MOTORLIB
            BIT     0020H.0   0000H.1   UNIT         ?BI?ISD51
                    0020H.1   0000H.7                *** GAP ***
            DATA    0021H     001EH     UNIT         ?DT?MAIN
            DATA    003FH     0004H     UNIT         ?DT?_SIN?MOTORLIB
            DATA    0043H     0004H     UNIT         ?DT?NORMALIZING_READ?MOTORLIB
            DATA    0047H     0001H     UNIT         ?DT?ISD51
            IDATA   0048H     0001H     UNIT         ?STACK

            * * * * * * *  X D A T A   M E M O R Y  * * * * * * *
                    0000H     A000H                  *** GAP ***
            XDATA   A000H     0005H     UNIT         ?XD?MOTORLIB

            * * * * * * *   C O D E   M E M O R Y   * * * * * * *
                    0000H     2000H                  *** GAP ***
            CODE    2000H     0003H     ABSOLUTE     
            CODE    2003H     0003H     ABSOLUTE     
            CODE    2006H     0003H     UNIT         ?PR?TIMER1INTERRUPT?INTERRUPT
                    2009H     0002H                  *** GAP ***
            CODE    200BH     0003H     ABSOLUTE     
                    200EH     0005H                  *** GAP ***
            CODE    2013H     0003H     ABSOLUTE     
                    2016H     0005H                  *** GAP ***
BL51 BANKED LINKER/LOCATER V6.22                                                      11/08/2018  15:11:09  PAGE 2


            CODE    201BH     0003H     ABSOLUTE     
                    201EH     0005H                  *** GAP ***
            CODE    2023H     0003H     ABSOLUTE     
            CODE    2026H     001DH     UNIT         ?PR?_SIN?MOTORLIB
            CODE    2043H     0003H     ABSOLUTE     
                    2046H     0005H                  *** GAP ***
            CODE    204BH     0003H     ABSOLUTE     
                    204EH     0005H                  *** GAP ***
            CODE    2053H     0003H     ABSOLUTE     
                    2056H     0005H                  *** GAP ***
            CODE    205BH     0003H     ABSOLUTE     
                    205EH     0005H                  *** GAP ***
            CODE    2063H     0003H     ABSOLUTE     
                    2066H     0005H                  *** GAP ***
            CODE    206BH     0003H     ABSOLUTE     
            CODE    206EH     0015H     UNIT         ?PR?UART2INTERRUPT?INTERRUPT
            CODE    2083H     0003H     ABSOLUTE     
                    2086H     0005H                  *** GAP ***
            CODE    208BH     0003H     ABSOLUTE     
            CODE    208EH     000FH     UNIT         ?PR?NORMALIZING_TEST?MOTORLIB
                    209DH     0006H                  *** GAP ***
            CODE    20A3H     0003H     ABSOLUTE     
                    20A6H     0005H                  *** GAP ***
            CODE    20ABH     0003H     ABSOLUTE     
                    20AEH     0005H                  *** GAP ***
            CODE    20B3H     0003H     ABSOLUTE     
                    20B6H     0005H                  *** GAP ***
            CODE    20BBH     0003H     ABSOLUTE     
                    20BEH     0005H                  *** GAP ***
            CODE    20C3H     0003H     ABSOLUTE     
                    20C6H     0005H                  *** GAP ***
            CODE    20CBH     0003H     ABSOLUTE     
                    20CEH     0005H                  *** GAP ***
            CODE    20D3H     0003H     ABSOLUTE     
                    20D6H     0005H                  *** GAP ***
            CODE    20DBH     0003H     ABSOLUTE     
                    20DEH     0005H                  *** GAP ***
            CODE    20E3H     0003H     ABSOLUTE     
                    20E6H     0005H                  *** GAP ***
            CODE    20EBH     0003H     ABSOLUTE     
                    20EEH     0005H                  *** GAP ***
            CODE    20F3H     0003H     ABSOLUTE     
            CODE    20F6H     0774H     UNIT         ?PR?INITEPWM?INITIAL
            CODE    286AH     0340H     INBLOCK      ?PR?ISD51
            CODE    2BAAH     016EH     UNIT         ?PR?INITGPIO?INITIAL
            CODE    2D18H     0137H     UNIT         ?PR?TIMER3INTERRUPT?INTERRUPT
            CODE    2E4FH     010CH     UNIT         ?PR?INITCOMPARATOR?INITIAL
            CODE    2F5BH     009DH     UNIT         ?PR?INITADC?INITIAL
            CODE    2FF8H     0094H     UNIT         ?PR?EXT1234INTERRUPT?INTERRUPT
            CODE    308CH     0093H     UNIT         ?PR?TIMER6INTERRUPT?INTERRUPT
            CODE    311FH     0093H     UNIT         ?PR?COMP234INTERRUPT?INTERRUPT
            CODE    31B2H     008FH     UNIT         ?C_C51STARTUP
            CODE    3241H     007BH     UNIT         ?PR?I2CINTERRUPT?INTERRUPT
            CODE    32BCH     007BH     UNIT         ?PR?SPIINTERRUPT?INTERRUPT
            CODE    3337H     007BH     UNIT         ?PR?EFLASHINTERRUPT?INTERRUPT
            CODE    33B2H     0077H     UNIT         ?PR?TIMER5INTERRUPT?INTERRUPT
            CODE    3429H     0072H     UNIT         ?PR?INITTIMER3?INITIAL
BL51 BANKED LINKER/LOCATER V6.22                                                      11/08/2018  15:11:09  PAGE 3


            CODE    349BH     0072H     UNIT         ?PR?EPWM123INTERRUPT?INTERRUPT
            CODE    350DH     0070H     UNIT         ?PR?TIMER4INTERRUPT?INTERRUPT
            CODE    357DH     0062H     UNIT         ?PR?EPWM4INTERRUPT?INTERRUPT
            CODE    35DFH     005BH     UNIT         ?PR?RTCINTERRUPT?INTERRUPT
            CODE    363AH     005BH     UNIT         ?PR?LDV18INTERRUPT?INTERRUPT
            CODE    3695H     005BH     UNIT         ?PR?LDV33INTERRUPT?INTERRUPT
            CODE    36F0H     0053H     UNIT         ?PR?SYSTEMCLOCK?INITIAL
            CODE    3743H     004CH     UNIT         ?PR?_EE_WRITE?MOTORLIB
            CODE    378FH     004BH     UNIT         ?PR?_EE_READ?MOTORLIB
            CODE    37DAH     0048H     UNIT         ?C?LIB_CODE
            CODE    3822H     0046H     UNIT         ?PR?INITISDDEBUG?INITIAL
            CODE    3868H     0045H     UNIT         ?PR?MAIN?MAIN
            CODE    38ADH     0043H     UNIT         ?PR?INITDAC?INITIAL
            CODE    38F0H     0041H     UNIT         ?PR?COMP1INTERRUPT?INTERRUPT
            CODE    3931H     0038H     UNIT         ?PR?ADCINTERRUPT?INTERRUPT
            CODE    3969H     0037H     UNIT         ?PR?INITTIMER5?INITIAL
            CODE    39A0H     0035H     UNIT         ?PR?INITTIMER6?INITIAL
            CODE    39D5H     002DH     UNIT         ?PR?INITTIMER4?INITIAL
            CODE    3A02H     002DH     UNIT         ?PR?_NORMALIZING_WRITE?MOTORLIB
            CODE    3A2FH     0027H     UNIT         ?PR?TIMER0INTERRUPT?INTERRUPT
            CODE    3A56H     0023H     UNIT         ?PR?INITTIMER01?INITIAL
            CODE    3A79H     001FH     UNIT         ?PR?INITEXT?INITIAL
            CODE    3A98H     001EH     UNIT         ?PR?INITWATCHDOG?INITIAL
            CODE    3AB6H     000DH     UNIT         ?PR?EPWMOUTPUTDISABLE?INITIAL
            CODE    3AC3H     000DH     UNIT         ?PR?EPWMOUTPUTENABLE?INITIAL
            CODE    3AD0H     000DH     UNIT         ?PR?SINITUART1?INITIAL
            CODE    3ADDH     000DH     UNIT         ?PR?NORMALIZING_READ?MOTORLIB
            CODE    3AEAH     000DH     UNIT         ?C_INITSEG
            CODE    3AF7H     000BH     UNIT         ?PR?UART1INTERRUPT?INTERRUPT
            CODE    3B02H     000AH     UNIT         ?PR?INITBREAKPOINT?INITIAL
            CODE    3B0CH     000AH     UNIT         ?PR?SINITUART2?INITIAL



OVERLAY MAP OF MODULE:   .\OUTPUT\motor (?C_STARTUP)


SEGMENT
  +--> CALLED SEGMENT
---------------------
?C_C51STARTUP
  +--> ?PR?MAIN?MAIN
  +--> ?C_INITSEG

?PR?MAIN?MAIN
  +--> ?PR?INITISDDEBUG?INITIAL
  +--> ?PR?INITTIMER3?INITIAL
  +--> ?PR?INITTIMER01?INITIAL
  +--> ?PR?INITDAC?INITIAL
  +--> ?PR?INITGPIO?INITIAL
  +--> ?PR?INITEPWM?INITIAL
  +--> ?PR?ISD51

?PR?INITISDDEBUG?INITIAL
  +--> ?PR?INITBREAKPOINT?INITIAL
  +--> ?PR?SINITUART1?INITIAL
  +--> ?PR?ISD51
BL51 BANKED LINKER/LOCATER V6.22                                                      11/08/2018  15:11:09  PAGE 4





SYMBOL TABLE OF MODULE:  .\OUTPUT\motor (?C_STARTUP)

  VALUE           TYPE          NAME
  ----------------------------------

  -------         MODULE        ?C_STARTUP
  C:31B2H         SEGMENT       ?C_C51STARTUP
  I:0048H         SEGMENT       ?STACK
  C:2000H         PUBLIC        ?C_STARTUP
  D:00E0H         SYMBOL        ACC
  D:00F0H         SYMBOL        B
  D:0083H         SYMBOL        DPH
  D:0082H         SYMBOL        DPL
  N:0000H         SYMBOL        IBPSTACK
  N:0100H         SYMBOL        IBPSTACKTOP
  N:0080H         SYMBOL        IDATALEN
  C:31B5H         SYMBOL        IDATALOOP
  N:0000H         SYMBOL        PBPSTACK
  N:0100H         SYMBOL        PBPSTACKTOP
  N:0000H         SYMBOL        PDATALEN
  N:0000H         SYMBOL        PDATASTART
  N:0000H         SYMBOL        PPAGE
  N:0001H         SYMBOL        PPAGEENABLE
  D:00A0H         SYMBOL        PPAGE_SFR
  D:0081H         SYMBOL        SP
  C:31B2H         SYMBOL        STARTUP1
  N:0000H         SYMBOL        XBPSTACK
  N:0000H         SYMBOL        XBPSTACKTOP
  N:0000H         SYMBOL        XDATALEN
  N:0000H         SYMBOL        XDATASTART
  C:2000H         LINE#         127
  C:31B2H         LINE#         134
  C:31B4H         LINE#         135
  C:31B5H         LINE#         136
  C:31B6H         LINE#         137
  C:31B8H         LINE#         156
  C:31BBH         LINE#         186
  C:31BEH         LINE#         197
  -------         ENDMOD        ?C_STARTUP

  -------         MODULE        MAIN
  C:0000H         SYMBOL        _ICE_DUMMY_
  D:0080H         PUBLIC        P0
  D:0090H         PUBLIC        P1
  D:00A0H         PUBLIC        P2
  D:00B0H         PUBLIC        P3
  D:0021H         PUBLIC        sin_out
  D:0025H         PUBLIC        EE_data
  D:00A8H         PUBLIC        IEN0
  D:00B8H         PUBLIC        IEN1
  D:0029H         PUBLIC        last_capture
  D:002DH         PUBLIC        this_capture
  B:00A8H.4       PUBLIC        ES
  B:0098H.0       PUBLIC        RI
BL51 BANKED LINKER/LOCATER V6.22                                                      11/08/2018  15:11:09  PAGE 5


  D:0031H         PUBLIC        data_value
  C:3868H         PUBLIC        main
  D:0033H         PUBLIC        ADresult
  D:0035H         PUBLIC        dac_value
  D:0036H         PUBLIC        pwm_capture
  D:0099H         PUBLIC        SBUF
  D:003AH         PUBLIC        input
  D:0088H         PUBLIC        TCON
  D:003EH         PUBLIC        tmr3_ov
  B:00A8H.7       PUBLIC        EAL
  D:0098H         PUBLIC        S0CON
  D:00C8H         PUBLIC        T2CON
  D:00D8H         PUBLIC        WDCON
  D:00C0H         PUBLIC        IRCON
  -------         PROC          MAIN
  C:3868H         LINE#         25
  C:3868H         LINE#         26
  C:3868H         LINE#         30
  C:386BH         LINE#         31
  C:386EH         LINE#         33
  C:3871H         LINE#         36
  C:3874H         LINE#         38
  C:3877H         LINE#         41
  C:387AH         LINE#         43
  C:387CH         LINE#         44
  C:387CH         LINE#         45
  C:387CH         LINE#         56
  C:388BH         LINE#         57
  C:3891H         LINE#         58
  C:3897H         LINE#         72
  C:38AAH         LINE#         75
  C:38ACH         LINE#         76
  -------         ENDPROC       MAIN
  -------         ENDMOD        MAIN

  -------         MODULE        INITIAL
  C:3A79H         SEGMENT       ?PR?INITEXT?INITIAL
  C:3822H         SEGMENT       ?PR?INITISDDEBUG?INITIAL
  C:3B02H         SEGMENT       ?PR?INITBREAKPOINT?INITIAL
  C:3AB6H         SEGMENT       ?PR?EPWMOUTPUTDISABLE?INITIAL
  C:3AC3H         SEGMENT       ?PR?EPWMOUTPUTENABLE?INITIAL
  C:2F5BH         SEGMENT       ?PR?INITADC?INITIAL
  C:20F6H         SEGMENT       ?PR?INITEPWM?INITIAL
  C:2E4FH         SEGMENT       ?PR?INITCOMPARATOR?INITIAL
  C:3A98H         SEGMENT       ?PR?INITWATCHDOG?INITIAL
  C:2BAAH         SEGMENT       ?PR?INITGPIO?INITIAL
  C:3A56H         SEGMENT       ?PR?INITTIMER01?INITIAL
  C:3429H         SEGMENT       ?PR?INITTIMER3?INITIAL
  C:39D5H         SEGMENT       ?PR?INITTIMER4?INITIAL
  C:3969H         SEGMENT       ?PR?INITTIMER5?INITIAL
  C:39A0H         SEGMENT       ?PR?INITTIMER6?INITIAL
  C:36F0H         SEGMENT       ?PR?SYSTEMCLOCK?INITIAL
  C:3AD0H         SEGMENT       ?PR?SINITUART1?INITIAL
  C:3B0CH         SEGMENT       ?PR?SINITUART2?INITIAL
  C:38ADH         SEGMENT       ?PR?INITDAC?INITIAL
  C:3AB6H         PUBLIC        EPWMOUTPUTDISABLE
  C:3AC3H         PUBLIC        EPWMOUTPUTENABLE
BL51 BANKED LINKER/LOCATER V6.22                                                      11/08/2018  15:11:09  PAGE 6


  C:2F5BH         PUBLIC        INITADC
  C:3B02H         PUBLIC        INITBREAKPOINT
  C:2E4FH         PUBLIC        INITCOMPARATOR
  C:38ADH         PUBLIC        INITDAC
  C:20F6H         PUBLIC        INITEPWM
  C:3A79H         PUBLIC        INITEXT
  C:2BAAH         PUBLIC        INITGPIO
  C:3822H         PUBLIC        INITISDDEBUG
  C:3A56H         PUBLIC        INITTIMER01
  C:3429H         PUBLIC        INITTIMER3
  C:39D5H         PUBLIC        INITTIMER4
  C:3969H         PUBLIC        INITTIMER5
  C:39A0H         PUBLIC        INITTIMER6
  C:3A98H         PUBLIC        INITWATCHDOG
  C:3AD0H         PUBLIC        SINITUART1
  C:3B0CH         PUBLIC        SINITUART2
  C:36F0H         PUBLIC        SYSTEMCLOCK
  C:3A97H         SYMBOL        ?C0001
  C:383BH         SYMBOL        ?C0002
  C:385BH         SYMBOL        ?C0003
  C:3852H         SYMBOL        ?C0004
  C:3852H         SYMBOL        ?C0005
  C:384FH         SYMBOL        ?C0006
  C:3852H         SYMBOL        ?C0007
  C:3859H         SYMBOL        ?C0008
  C:3867H         SYMBOL        ?C0009
  C:3B0BH         SYMBOL        ?C0010
  C:3AC2H         SYMBOL        ?C0011
  C:3ACFH         SYMBOL        ?C0012
  C:2FF7H         SYMBOL        ?C0013
  C:2869H         SYMBOL        ?C0014
  C:2F5AH         SYMBOL        ?C0015
  C:3AB5H         SYMBOL        ?C0016
  C:2D17H         SYMBOL        ?C0017
  C:3A78H         SYMBOL        ?C0018
  C:349AH         SYMBOL        ?C0019
  C:3A01H         SYMBOL        ?C0020
  C:399FH         SYMBOL        ?C0021
  C:39D4H         SYMBOL        ?C0022
  C:3742H         SYMBOL        ?C0023
  C:3ADCH         SYMBOL        ?C0024
  C:3B15H         SYMBOL        ?C0025
  C:38EFH         SYMBOL        ?C0026
  D:00E0H         SYMBOL        ACC
  D:00EFH         SYMBOL        ARCON
  D:00F0H         SYMBOL        B
  D:0093H         SYMBOL        BPCTRL
  D:0095H         SYMBOL        BREAKH
  D:0094H         SYMBOL        BREAKL
  D:00ABH         SYMBOL        BSHCTL
  D:00ACH         SYMBOL        BSHI_0
  D:00ADH         SYMBOL        BSHI_1
  D:00AEH         SYMBOL        BSHI_2
  D:00AFH         SYMBOL        BSHI_3
  D:00BCH         SYMBOL        BSHO_0
  D:00BDH         SYMBOL        BSHO_1
  D:00BEH         SYMBOL        BSHO_2
BL51 BANKED LINKER/LOCATER V6.22                                                      11/08/2018  15:11:09  PAGE 7


  D:00BFH         SYMBOL        BSHO_3
  D:008EH         SYMBOL        CKCON
  D:0091H         SYMBOL        CLK_DIV
  D:008FH         SYMBOL        CLK_PD_CON
  D:0083H         SYMBOL        DPH
  D:0085H         SYMBOL        DPH1
  D:0082H         SYMBOL        DPL
  D:0084H         SYMBOL        DPL1
  D:0092H         SYMBOL        DPS
  B:00B8H.0       SYMBOL        EADC
  B:00A8H.7       SYMBOL        EAL
  B:00A8H.4       SYMBOL        ES
  B:00A8H.4       SYMBOL        ES0
  B:00A8H.1       SYMBOL        ET0
  B:00A8H.3       SYMBOL        ET1
  B:00A8H.0       SYMBOL        EX0
  B:00A8H.2       SYMBOL        EX1
  B:00B8H.1       SYMBOL        EX2
  B:00B8H.2       SYMBOL        EX3
  B:00B8H.3       SYMBOL        EX4
  B:00B8H.4       SYMBOL        EX5
  B:00B8H.5       SYMBOL        EX6
  B:00C8H.5       SYMBOL        I2FR
  B:00C8H.6       SYMBOL        I3FR
  B:00C0H.0       SYMBOL        IADC
  D:00A8H         SYMBOL        IE
  B:0088H.1       SYMBOL        IE0
  B:0088H.3       SYMBOL        IE1
  D:00A8H         SYMBOL        IEN0
  D:00B8H         SYMBOL        IEN1
  D:009AH         SYMBOL        IEN2
  B:00C0H.1       SYMBOL        IEX2
  B:00C0H.2       SYMBOL        IEX3
  B:00C0H.3       SYMBOL        IEX4
  B:00C0H.4       SYMBOL        IEX5
  B:00C0H.5       SYMBOL        IEX6
  N:0000H         SYMBOL        INITIAL
  D:00F9H         SYMBOL        INT_REG1
  D:00FAH         SYMBOL        INT_REG2
  D:00FDH         SYMBOL        INT_REG3
  D:00FEH         SYMBOL        INT_REG4
  D:00A9H         SYMBOL        IP0
  D:00B9H         SYMBOL        IP1
  D:00C0H         SYMBOL        IRCON
  B:0088H.0       SYMBOL        IT0
  B:0088H.2       SYMBOL        IT1
  D:00E9H         SYMBOL        MD0
  D:00EAH         SYMBOL        MD1
  D:00EBH         SYMBOL        MD2
  D:00ECH         SYMBOL        MD3
  D:00EDH         SYMBOL        MD4
  D:00EEH         SYMBOL        MD5
  D:00E8H         SYMBOL        MEM_CONFIG
  D:0080H         SYMBOL        P0
  B:0080H.0       SYMBOL        P00
  B:0080H.1       SYMBOL        P01
  B:0080H.2       SYMBOL        P02
BL51 BANKED LINKER/LOCATER V6.22                                                      11/08/2018  15:11:09  PAGE 8


  B:0080H.3       SYMBOL        P03
  B:0080H.4       SYMBOL        P04
  B:0080H.5       SYMBOL        P05
  B:0080H.6       SYMBOL        P06
  B:0080H.7       SYMBOL        P07
  D:0090H         SYMBOL        P1
  B:0090H.0       SYMBOL        P10
  B:0090H.1       SYMBOL        P11
  B:0090H.2       SYMBOL        P12
  B:0090H.3       SYMBOL        P13
  B:0090H.4       SYMBOL        P14
  B:0090H.5       SYMBOL        P15
  B:0090H.6       SYMBOL        P16
  B:0090H.7       SYMBOL        P17
  D:00B1H         SYMBOL        P1AQCSFRC
  D:00A7H         SYMBOL        P1AQSFRC
  D:00A3H         SYMBOL        P1CMPA
  D:00A4H         SYMBOL        P1CMPA_H
  D:00A3H         SYMBOL        P1CMPA_L
  D:00A5H         SYMBOL        P1CMPB
  D:00A6H         SYMBOL        P1CMPB_H
  D:00A5H         SYMBOL        P1CMPB_L
  D:00B6H         SYMBOL        P1ETCLR
  D:00B5H         SYMBOL        P1ETFLG
  D:00B7H         SYMBOL        P1ETFRC
  D:00A1H         SYMBOL        P1TBPRD
  D:00A2H         SYMBOL        P1TBPRD_H
  D:00A1H         SYMBOL        P1TBPRD_L
  D:00B3H         SYMBOL        P1TZCLR
  D:00B2H         SYMBOL        P1TZFLG
  D:00B4H         SYMBOL        P1TZFRC
  D:00A0H         SYMBOL        P2
  B:00A0H.0       SYMBOL        P20
  B:00A0H.1       SYMBOL        P21
  B:00A0H.2       SYMBOL        P22
  B:00A0H.3       SYMBOL        P23
  B:00A0H.4       SYMBOL        P24
  B:00A0H.5       SYMBOL        P25
  B:00A0H.6       SYMBOL        P26
  B:00A0H.7       SYMBOL        P27
  D:00C9H         SYMBOL        P2AQCSFRC
  D:00C7H         SYMBOL        P2AQSFRC
  D:00C3H         SYMBOL        P2CMPA
  D:00C4H         SYMBOL        P2CMPA_H
  D:00C3H         SYMBOL        P2CMPA_L
  D:00C5H         SYMBOL        P2CMPB
  D:00C6H         SYMBOL        P2CMPB_H
  D:00C5H         SYMBOL        P2CMPB_L
  D:00CEH         SYMBOL        P2ETCLR
  D:00CDH         SYMBOL        P2ETFLG
  D:00CFH         SYMBOL        P2ETFRC
  D:00C1H         SYMBOL        P2TBPRD
  D:00C2H         SYMBOL        P2TBPRD_H
  D:00C1H         SYMBOL        P2TBPRD_L
  D:00CBH         SYMBOL        P2TZCLR
  D:00CAH         SYMBOL        P2TZFLG
  D:00CCH         SYMBOL        P2TZFRC
BL51 BANKED LINKER/LOCATER V6.22                                                      11/08/2018  15:11:09  PAGE 9


  D:00B0H         SYMBOL        P3
  B:00B0H.0       SYMBOL        P30
  B:00B0H.1       SYMBOL        P31
  B:00B0H.2       SYMBOL        P32
  B:00B0H.3       SYMBOL        P33
  B:00B0H.4       SYMBOL        P34
  B:00B0H.5       SYMBOL        P35
  B:00B0H.6       SYMBOL        P36
  B:00B0H.7       SYMBOL        P37
  D:00D9H         SYMBOL        P3AQCSFRC
  D:00D7H         SYMBOL        P3AQSFRC
  D:00D3H         SYMBOL        P3CMPA
  D:00D4H         SYMBOL        P3CMPA_H
  D:00D3H         SYMBOL        P3CMPA_L
  D:00D5H         SYMBOL        P3CMPB
  D:00D6H         SYMBOL        P3CMPB_H
  D:00D5H         SYMBOL        P3CMPB_L
  D:00DEH         SYMBOL        P3ETCLR
  D:00DDH         SYMBOL        P3ETFLG
  D:00DFH         SYMBOL        P3ETFRC
  D:00D1H         SYMBOL        P3TBPRD
  D:00D2H         SYMBOL        P3TBPRD_H
  D:00D1H         SYMBOL        P3TBPRD_L
  D:00DBH         SYMBOL        P3TZCLR
  D:00DAH         SYMBOL        P3TZFLG
  D:00DCH         SYMBOL        P3TZFRC
  D:00F1H         SYMBOL        P4AQCSFRC
  D:00E7H         SYMBOL        P4AQSFRC
  D:00E3H         SYMBOL        P4CMPA
  D:00E4H         SYMBOL        P4CMPA_H
  D:00E3H         SYMBOL        P4CMPA_L
  D:00E5H         SYMBOL        P4CMPB
  D:00E6H         SYMBOL        P4CMPB_H
  D:00E5H         SYMBOL        P4CMPB_L
  D:00F6H         SYMBOL        P4ETCLR
  D:00F5H         SYMBOL        P4ETFLG
  D:00F7H         SYMBOL        P4ETFRC
  D:00E1H         SYMBOL        P4TBPRD
  D:00E2H         SYMBOL        P4TBPRD_H
  D:00E1H         SYMBOL        P4TBPRD_L
  D:00F3H         SYMBOL        P4TZCLR
  D:00F2H         SYMBOL        P4TZFLG
  D:00F4H         SYMBOL        P4TZFRC
  D:0087H         SYMBOL        PCON
  D:0097H         SYMBOL        POWER_CON
  D:00D0H         SYMBOL        PSW
  B:0098H.2       SYMBOL        RB80
  B:0098H.4       SYMBOL        REN0
  B:0098H.0       SYMBOL        RI
  B:0098H.0       SYMBOL        RI0
  D:0099H         SYMBOL        S0BUF
  D:0098H         SYMBOL        S0CON
  D:00BAH         SYMBOL        S0RELH
  D:00AAH         SYMBOL        S0RELL
  D:009CH         SYMBOL        S1BUF
  D:009BH         SYMBOL        S1CON
  D:00BBH         SYMBOL        S1RELH
BL51 BANKED LINKER/LOCATER V6.22                                                      11/08/2018  15:11:09  PAGE 10


  D:009DH         SYMBOL        S1RELL
  D:0099H         SYMBOL        SBUF
  B:0098H.7       SYMBOL        SM0
  B:0098H.6       SYMBOL        SM1
  B:0098H.5       SYMBOL        SM20
  D:0081H         SYMBOL        SP
  D:00F8H         SYMBOL        SRAM_CON
  B:00B8H.6       SYMBOL        SWDT
  D:00C8H         SYMBOL        T2CON
  B:0098H.3       SYMBOL        TB80
  D:0088H         SYMBOL        TCON
  B:0088H.5       SYMBOL        TF0
  B:0088H.7       SYMBOL        TF1
  D:008CH         SYMBOL        TH0
  D:008DH         SYMBOL        TH1
  B:0098H.1       SYMBOL        TI0
  D:008AH         SYMBOL        TL0
  D:008BH         SYMBOL        TL1
  D:0089H         SYMBOL        TMOD
  B:0088H.4       SYMBOL        TR0
  B:0088H.6       SYMBOL        TR1
  D:00D8H         SYMBOL        WDCON
  B:00D8H.7       SYMBOL        WDCON_7
  B:00A8H.6       SYMBOL        WDT
  D:0086H         SYMBOL        WDTREL
  C:3A79H         LINE#         283
  C:3A7CH         LINE#         284
  C:3A7EH         LINE#         285
  C:3A7FH         LINE#         293
  C:3A82H         LINE#         294
  C:3A83H         LINE#         295
  C:3A84H         LINE#         296
  C:3A85H         LINE#         297
  C:3A87H         LINE#         298
  C:3A88H         LINE#         299
  C:3A89H         LINE#         300
  C:3A8BH         LINE#         301
  C:3A8CH         LINE#         302
  C:3A8DH         LINE#         303
  C:3A8EH         LINE#         306
  C:3A90H         LINE#         309
  C:3A92H         LINE#         312
  C:3A94H         LINE#         315
  C:3A97H         LINE#         320
  C:3822H         LINE#         335
  C:3824H         LINE#         340
  C:3827H         LINE#         343
  C:382AH         LINE#         347
  C:382DH         LINE#         350
  C:3830H         LINE#         353
  C:3832H         LINE#         356
  C:3834H         LINE#         359
  C:3836H         LINE#         362
  C:3838H         LINE#         365
  C:3839H         LINE#         368
  C:383AH         LINE#         371
  C:383BH         LINE#         379
BL51 BANKED LINKER/LOCATER V6.22                                                      11/08/2018  15:11:09  PAGE 11


  C:383DH         LINE#         382
  C:383FH         LINE#         385
  C:3842H         LINE#         386
  C:3845H         LINE#         387
  C:3847H         LINE#         388
  C:3849H         LINE#         389
  C:384BH         LINE#         390
  C:384DH         LINE#         391
  C:384FH         LINE#         393
  C:3852H         LINE#         399
  C:3854H         LINE#         400
  C:3857H         LINE#         401
  C:3859H         LINE#         405
  C:385BH         LINE#         409
  C:385CH         LINE#         412
  C:385DH         LINE#         415
  C:385EH         LINE#         418
  C:3860H         LINE#         421
  C:3862H         LINE#         424
  C:3863H         LINE#         427
  C:3864H         LINE#         430
  C:3865H         LINE#         435
  C:3867H         LINE#         439
  C:3B02H         LINE#         456
  C:3B05H         LINE#         459
  C:3B08H         LINE#         462
  C:3B0BH         LINE#         466
  C:3AB6H         LINE#         479
  C:3AB9H         LINE#         482
  C:3ABCH         LINE#         485
  C:3ABFH         LINE#         488
  C:3AC2H         LINE#         492
  C:3AC3H         LINE#         505
  C:3AC6H         LINE#         508
  C:3AC9H         LINE#         511
  C:3ACCH         LINE#         514
  C:3ACFH         LINE#         518
  C:2F5BH         LINE#         533
  C:2F5EH         LINE#         534
  C:2F5FH         LINE#         535
  C:2F60H         LINE#         538
  C:2F63H         LINE#         539
  C:2F64H         LINE#         540
  C:2F65H         LINE#         541
  C:2F66H         LINE#         542
  C:2F68H         LINE#         543
  C:2F69H         LINE#         544
  C:2F6AH         LINE#         545
  C:2F6BH         LINE#         548
  C:2F6EH         LINE#         549
  C:2F6FH         LINE#         550
  C:2F70H         LINE#         551
  C:2F71H         LINE#         552
  C:2F73H         LINE#         553
  C:2F74H         LINE#         554
  C:2F75H         LINE#         555
  C:2F76H         LINE#         558
BL51 BANKED LINKER/LOCATER V6.22                                                      11/08/2018  15:11:09  PAGE 12


  C:2F79H         LINE#         559
  C:2F7BH         LINE#         560
  C:2F7CH         LINE#         566
  C:2F7FH         LINE#         567
  C:2F80H         LINE#         568
  C:2F81H         LINE#         569
  C:2F82H         LINE#         570
  C:2F84H         LINE#         571
  C:2F85H         LINE#         572
  C:2F86H         LINE#         573
  C:2F87H         LINE#         576
  C:2F8AH         LINE#         577
  C:2F8BH         LINE#         578
  C:2F8CH         LINE#         579
  C:2F8DH         LINE#         580
  C:2F8FH         LINE#         581
  C:2F90H         LINE#         582
  C:2F91H         LINE#         583
  C:2F92H         LINE#         589
  C:2F95H         LINE#         590
  C:2F96H         LINE#         591
  C:2F97H         LINE#         592
  C:2F98H         LINE#         593
  C:2F9AH         LINE#         594
  C:2F9BH         LINE#         595
  C:2F9CH         LINE#         596
  C:2F9EH         LINE#         597
  C:2F9FH         LINE#         598
  C:2FA0H         LINE#         599
  C:2FA1H         LINE#         602
  C:2FA4H         LINE#         603
  C:2FA5H         LINE#         604
  C:2FA6H         LINE#         605
  C:2FA7H         LINE#         606
  C:2FA9H         LINE#         607
  C:2FAAH         LINE#         608
  C:2FABH         LINE#         609
  C:2FADH         LINE#         610
  C:2FAEH         LINE#         611
  C:2FAFH         LINE#         612
  C:2FB0H         LINE#         615
  C:2FB3H         LINE#         616
  C:2FB4H         LINE#         617
  C:2FB5H         LINE#         618
  C:2FB6H         LINE#         619
  C:2FB8H         LINE#         620
  C:2FB9H         LINE#         621
  C:2FBAH         LINE#         622
  C:2FBCH         LINE#         623
  C:2FBDH         LINE#         624
  C:2FBEH         LINE#         625
  C:2FBFH         LINE#         630
  C:2FC2H         LINE#         631
  C:2FC3H         LINE#         632
  C:2FC4H         LINE#         633
  C:2FC5H         LINE#         634
  C:2FC7H         LINE#         635
BL51 BANKED LINKER/LOCATER V6.22                                                      11/08/2018  15:11:09  PAGE 13


  C:2FC8H         LINE#         636
  C:2FC9H         LINE#         637
  C:2FCAH         LINE#         640
  C:2FCDH         LINE#         641
  C:2FCEH         LINE#         642
  C:2FCFH         LINE#         643
  C:2FD0H         LINE#         644
  C:2FD2H         LINE#         645
  C:2FD3H         LINE#         646
  C:2FD4H         LINE#         647
  C:2FD5H         LINE#         651
  C:2FD8H         LINE#         652
  C:2FD9H         LINE#         653
  C:2FDAH         LINE#         654
  C:2FDBH         LINE#         655
  C:2FDDH         LINE#         656
  C:2FDEH         LINE#         657
  C:2FDFH         LINE#         658
  C:2FE0H         LINE#         661
  C:2FE3H         LINE#         662
  C:2FE4H         LINE#         663
  C:2FE5H         LINE#         664
  C:2FE6H         LINE#         665
  C:2FE8H         LINE#         666
  C:2FE9H         LINE#         667
  C:2FEAH         LINE#         668
  C:2FEBH         LINE#         671
  C:2FEEH         LINE#         672
  C:2FEFH         LINE#         673
  C:2FF0H         LINE#         674
  C:2FF1H         LINE#         675
  C:2FF2H         LINE#         676
  C:2FF3H         LINE#         682
  C:2FF5H         LINE#         685
  C:2FF7H         LINE#         690
  C:20F6H         LINE#         709
  C:20F9H         LINE#         710
  C:20FAH         LINE#         711
  C:20FBH         LINE#         712
  C:20FCH         LINE#         713
  C:20FEH         LINE#         714
  C:20FFH         LINE#         715
  C:2100H         LINE#         716
  C:2102H         LINE#         717
  C:2103H         LINE#         718
  C:2104H         LINE#         719
  C:2105H         LINE#         722
  C:2108H         LINE#         723
  C:2109H         LINE#         724
  C:210AH         LINE#         725
  C:210BH         LINE#         726
  C:210DH         LINE#         727
  C:210EH         LINE#         728
  C:210FH         LINE#         729
  C:2111H         LINE#         730
  C:2112H         LINE#         731
  C:2113H         LINE#         732
BL51 BANKED LINKER/LOCATER V6.22                                                      11/08/2018  15:11:09  PAGE 14


  C:2114H         LINE#         736
  C:2117H         LINE#         737
  C:2118H         LINE#         738
  C:2119H         LINE#         739
  C:211AH         LINE#         740
  C:211CH         LINE#         741
  C:211DH         LINE#         742
  C:211EH         LINE#         743
  C:2120H         LINE#         744
  C:2121H         LINE#         745
  C:2122H         LINE#         746
  C:2123H         LINE#         749
  C:2126H         LINE#         750
  C:2127H         LINE#         751
  C:2128H         LINE#         752
  C:2129H         LINE#         753
  C:212BH         LINE#         754
  C:212CH         LINE#         755
  C:212DH         LINE#         756
  C:212FH         LINE#         757
  C:2130H         LINE#         758
  C:2131H         LINE#         759
  C:2132H         LINE#         763
  C:2135H         LINE#         764
  C:2136H         LINE#         765
  C:2137H         LINE#         766
  C:2138H         LINE#         767
  C:213AH         LINE#         768
  C:213BH         LINE#         769
  C:213CH         LINE#         770
  C:213EH         LINE#         771
  C:213FH         LINE#         772
  C:2140H         LINE#         773
  C:2141H         LINE#         776
  C:2144H         LINE#         777
  C:2145H         LINE#         778
  C:2146H         LINE#         779
  C:2147H         LINE#         780
  C:2149H         LINE#         781
  C:214AH         LINE#         782
  C:214BH         LINE#         783
  C:214DH         LINE#         784
  C:214EH         LINE#         785
  C:214FH         LINE#         786
  C:2150H         LINE#         796
  C:2153H         LINE#         797
  C:2156H         LINE#         800
  C:2159H         LINE#         801
  C:215CH         LINE#         804
  C:215FH         LINE#         805
  C:2162H         LINE#         808
  C:2165H         LINE#         809
  C:2168H         LINE#         817
  C:216BH         LINE#         818
  C:216CH         LINE#         819
  C:216DH         LINE#         820
  C:216EH         LINE#         821
BL51 BANKED LINKER/LOCATER V6.22                                                      11/08/2018  15:11:09  PAGE 15


  C:2170H         LINE#         822
  C:2171H         LINE#         823
  C:2172H         LINE#         824
  C:2173H         LINE#         827
  C:2176H         LINE#         828
  C:2177H         LINE#         829
  C:2178H         LINE#         830
  C:2179H         LINE#         831
  C:217BH         LINE#         832
  C:217CH         LINE#         833
  C:217DH         LINE#         834
  C:217EH         LINE#         837
  C:2181H         LINE#         838
  C:2182H         LINE#         839
  C:2183H         LINE#         840
  C:2184H         LINE#         841
  C:2186H         LINE#         842
  C:2187H         LINE#         843
  C:2188H         LINE#         844
  C:2189H         LINE#         847
  C:218CH         LINE#         848
  C:218DH         LINE#         849
  C:218EH         LINE#         850
  C:218FH         LINE#         851
  C:2191H         LINE#         852
  C:2192H         LINE#         853
  C:2193H         LINE#         854
  C:2194H         LINE#         857
  C:2197H         LINE#         858
  C:2198H         LINE#         859
  C:2199H         LINE#         860
  C:219AH         LINE#         861
  C:219CH         LINE#         862
  C:219DH         LINE#         863
  C:219EH         LINE#         864
  C:219FH         LINE#         871
  C:21A2H         LINE#         872
  C:21A3H         LINE#         873
  C:21A4H         LINE#         874
  C:21A5H         LINE#         875
  C:21A7H         LINE#         876
  C:21A8H         LINE#         877
  C:21A9H         LINE#         878
  C:21ABH         LINE#         879
  C:21ACH         LINE#         880
  C:21ADH         LINE#         881
  C:21AEH         LINE#         884
  C:21B1H         LINE#         885
  C:21B2H         LINE#         886
  C:21B3H         LINE#         887
  C:21B4H         LINE#         888
  C:21B6H         LINE#         889
  C:21B7H         LINE#         890
  C:21B8H         LINE#         891
  C:21BAH         LINE#         892
  C:21BBH         LINE#         893
  C:21BCH         LINE#         894
BL51 BANKED LINKER/LOCATER V6.22                                                      11/08/2018  15:11:09  PAGE 16


  C:21BDH         LINE#         897
  C:21C0H         LINE#         898
  C:21C1H         LINE#         899
  C:21C2H         LINE#         900
  C:21C3H         LINE#         901
  C:21C5H         LINE#         902
  C:21C6H         LINE#         903
  C:21C7H         LINE#         904
  C:21C9H         LINE#         905
  C:21CAH         LINE#         906
  C:21CBH         LINE#         907
  C:21CCH         LINE#         910
  C:21CFH         LINE#         911
  C:21D0H         LINE#         912
  C:21D1H         LINE#         913
  C:21D2H         LINE#         914
  C:21D4H         LINE#         915
  C:21D5H         LINE#         916
  C:21D6H         LINE#         917
  C:21D8H         LINE#         918
  C:21D9H         LINE#         919
  C:21DAH         LINE#         920
  C:21DBH         LINE#         925
  C:21DEH         LINE#         926
  C:21DFH         LINE#         927
  C:21E0H         LINE#         928
  C:21E1H         LINE#         929
  C:21E3H         LINE#         930
  C:21E4H         LINE#         931
  C:21E5H         LINE#         932
  C:21E6H         LINE#         939
  C:21E9H         LINE#         940
  C:21EAH         LINE#         941
  C:21EBH         LINE#         942
  C:21ECH         LINE#         943
  C:21EEH         LINE#         944
  C:21EFH         LINE#         945
  C:21F0H         LINE#         946
  C:21F2H         LINE#         947
  C:21F3H         LINE#         948
  C:21F4H         LINE#         949
  C:21F5H         LINE#         952
  C:21F8H         LINE#         953
  C:21F9H         LINE#         954
  C:21FAH         LINE#         955
  C:21FBH         LINE#         956
  C:21FDH         LINE#         957
  C:21FEH         LINE#         958
  C:21FFH         LINE#         959
  C:2201H         LINE#         960
  C:2202H         LINE#         961
  C:2203H         LINE#         962
  C:2204H         LINE#         965
  C:2207H         LINE#         966
  C:2208H         LINE#         967
  C:2209H         LINE#         968
  C:220AH         LINE#         969
BL51 BANKED LINKER/LOCATER V6.22                                                      11/08/2018  15:11:09  PAGE 17


  C:220CH         LINE#         970
  C:220DH         LINE#         971
  C:220EH         LINE#         972
  C:2210H         LINE#         973
  C:2211H         LINE#         974
  C:2212H         LINE#         975
  C:2213H         LINE#         978
  C:2216H         LINE#         979
  C:2217H         LINE#         980
  C:2218H         LINE#         981
  C:2219H         LINE#         982
  C:221BH         LINE#         983
  C:221CH         LINE#         984
  C:221DH         LINE#         985
  C:221FH         LINE#         986
  C:2220H         LINE#         987
  C:2221H         LINE#         988
  C:2222H         LINE#         995
  C:2225H         LINE#         996
  C:2226H         LINE#         997
  C:2227H         LINE#         998
  C:2228H         LINE#         999
  C:222AH         LINE#         1000
  C:222BH         LINE#         1001
  C:222CH         LINE#         1002
  C:222DH         LINE#         1005
  C:2230H         LINE#         1006
  C:2231H         LINE#         1007
  C:2232H         LINE#         1008
  C:2233H         LINE#         1009
  C:2235H         LINE#         1010
  C:2236H         LINE#         1011
  C:2237H         LINE#         1012
  C:2238H         LINE#         1015
  C:223BH         LINE#         1016
  C:223CH         LINE#         1017
  C:223DH         LINE#         1018
  C:223EH         LINE#         1019
  C:2240H         LINE#         1020
  C:2241H         LINE#         1021
  C:2242H         LINE#         1022
  C:2243H         LINE#         1025
  C:2246H         LINE#         1026
  C:2247H         LINE#         1027
  C:2248H         LINE#         1028
  C:2249H         LINE#         1029
  C:224BH         LINE#         1030
  C:224CH         LINE#         1031
  C:224DH         LINE#         1032
  C:224EH         LINE#         1036
  C:2251H         LINE#         1037
  C:2252H         LINE#         1038
  C:2253H         LINE#         1039
  C:2254H         LINE#         1040
  C:2256H         LINE#         1041
  C:2257H         LINE#         1042
  C:2258H         LINE#         1043
BL51 BANKED LINKER/LOCATER V6.22                                                      11/08/2018  15:11:09  PAGE 18


  C:2259H         LINE#         1046
  C:225CH         LINE#         1047
  C:225DH         LINE#         1048
  C:225EH         LINE#         1049
  C:225FH         LINE#         1050
  C:2261H         LINE#         1051
  C:2262H         LINE#         1052
  C:2263H         LINE#         1053
  C:2264H         LINE#         1056
  C:2267H         LINE#         1057
  C:2268H         LINE#         1058
  C:2269H         LINE#         1059
  C:226AH         LINE#         1060
  C:226CH         LINE#         1061
  C:226DH         LINE#         1062
  C:226EH         LINE#         1063
  C:226FH         LINE#         1066
  C:2272H         LINE#         1067
  C:2273H         LINE#         1068
  C:2274H         LINE#         1069
  C:2275H         LINE#         1070
  C:2277H         LINE#         1071
  C:2278H         LINE#         1072
  C:2279H         LINE#         1073
  C:227AH         LINE#         1077
  C:227DH         LINE#         1078
  C:227EH         LINE#         1079
  C:227FH         LINE#         1080
  C:2280H         LINE#         1081
  C:2282H         LINE#         1082
  C:2283H         LINE#         1083
  C:2284H         LINE#         1084
  C:2285H         LINE#         1087
  C:2288H         LINE#         1088
  C:2289H         LINE#         1089
  C:228AH         LINE#         1090
  C:228BH         LINE#         1091
  C:228DH         LINE#         1092
  C:228EH         LINE#         1093
  C:228FH         LINE#         1094
  C:2290H         LINE#         1097
  C:2293H         LINE#         1098
  C:2294H         LINE#         1099
  C:2295H         LINE#         1100
  C:2296H         LINE#         1101
  C:2298H         LINE#         1102
  C:2299H         LINE#         1103
  C:229AH         LINE#         1104
  C:229BH         LINE#         1107
  C:229EH         LINE#         1108
  C:229FH         LINE#         1109
  C:22A0H         LINE#         1110
  C:22A1H         LINE#         1111
  C:22A3H         LINE#         1112
  C:22A4H         LINE#         1113
  C:22A5H         LINE#         1114
  C:22A6H         LINE#         1118
BL51 BANKED LINKER/LOCATER V6.22                                                      11/08/2018  15:11:09  PAGE 19


  C:22A9H         LINE#         1119
  C:22AAH         LINE#         1120
  C:22ABH         LINE#         1121
  C:22ACH         LINE#         1122
  C:22AEH         LINE#         1123
  C:22AFH         LINE#         1124
  C:22B0H         LINE#         1125
  C:22B1H         LINE#         1128
  C:22B4H         LINE#         1129
  C:22B5H         LINE#         1130
  C:22B6H         LINE#         1131
  C:22B7H         LINE#         1132
  C:22B9H         LINE#         1133
  C:22BAH         LINE#         1134
  C:22BBH         LINE#         1135
  C:22BCH         LINE#         1138
  C:22BFH         LINE#         1139
  C:22C0H         LINE#         1140
  C:22C1H         LINE#         1141
  C:22C2H         LINE#         1142
  C:22C4H         LINE#         1143
  C:22C5H         LINE#         1144
  C:22C6H         LINE#         1145
  C:22C7H         LINE#         1148
  C:22CAH         LINE#         1149
  C:22CBH         LINE#         1150
  C:22CCH         LINE#         1151
  C:22CDH         LINE#         1152
  C:22CFH         LINE#         1153
  C:22D0H         LINE#         1154
  C:22D1H         LINE#         1155
  C:22D2H         LINE#         1165
  C:22D5H         LINE#         1166
  C:22D6H         LINE#         1167
  C:22D7H         LINE#         1168
  C:22D8H         LINE#         1169
  C:22DAH         LINE#         1170
  C:22DBH         LINE#         1171
  C:22DCH         LINE#         1172
  C:22DEH         LINE#         1173
  C:22DFH         LINE#         1174
  C:22E0H         LINE#         1175
  C:22E1H         LINE#         1178
  C:22E4H         LINE#         1179
  C:22E5H         LINE#         1180
  C:22E6H         LINE#         1181
  C:22E7H         LINE#         1182
  C:22E9H         LINE#         1183
  C:22EAH         LINE#         1184
  C:22EBH         LINE#         1185
  C:22EDH         LINE#         1186
  C:22EEH         LINE#         1187
  C:22EFH         LINE#         1188
  C:22F0H         LINE#         1191
  C:22F3H         LINE#         1192
  C:22F4H         LINE#         1193
  C:22F5H         LINE#         1194
BL51 BANKED LINKER/LOCATER V6.22                                                      11/08/2018  15:11:09  PAGE 20


  C:22F6H         LINE#         1195
  C:22F8H         LINE#         1196
  C:22F9H         LINE#         1197
  C:22FAH         LINE#         1198
  C:22FBH         LINE#         1201
  C:22FEH         LINE#         1202
  C:22FFH         LINE#         1203
  C:2300H         LINE#         1204
  C:2301H         LINE#         1205
  C:2303H         LINE#         1206
  C:2304H         LINE#         1207
  C:2305H         LINE#         1208
  C:2306H         LINE#         1211
  C:2309H         LINE#         1212
  C:230AH         LINE#         1213
  C:230BH         LINE#         1214
  C:230CH         LINE#         1215
  C:230EH         LINE#         1216
  C:230FH         LINE#         1217
  C:2310H         LINE#         1218
  C:2311H         LINE#         1221
  C:2314H         LINE#         1222
  C:2315H         LINE#         1223
  C:2316H         LINE#         1224
  C:2317H         LINE#         1225
  C:2319H         LINE#         1226
  C:231AH         LINE#         1227
  C:231BH         LINE#         1228
  C:231CH         LINE#         1232
  C:231FH         LINE#         1233
  C:2320H         LINE#         1234
  C:2321H         LINE#         1235
  C:2322H         LINE#         1236
  C:2324H         LINE#         1237
  C:2325H         LINE#         1238
  C:2326H         LINE#         1239
  C:2328H         LINE#         1240
  C:2329H         LINE#         1241
  C:232AH         LINE#         1242
  C:232BH         LINE#         1245
  C:232EH         LINE#         1246
  C:232FH         LINE#         1247
  C:2330H         LINE#         1248
  C:2331H         LINE#         1249
  C:2333H         LINE#         1250
  C:2334H         LINE#         1251
  C:2335H         LINE#         1252
  C:2337H         LINE#         1253
  C:2338H         LINE#         1254
  C:2339H         LINE#         1255
  C:233AH         LINE#         1258
  C:233DH         LINE#         1259
  C:233EH         LINE#         1260
  C:233FH         LINE#         1261
  C:2340H         LINE#         1262
  C:2342H         LINE#         1263
  C:2343H         LINE#         1264
BL51 BANKED LINKER/LOCATER V6.22                                                      11/08/2018  15:11:09  PAGE 21


  C:2344H         LINE#         1265
  C:2345H         LINE#         1268
  C:2348H         LINE#         1269
  C:2349H         LINE#         1270
  C:234AH         LINE#         1271
  C:234BH         LINE#         1272
  C:234DH         LINE#         1273
  C:234EH         LINE#         1274
  C:234FH         LINE#         1275
  C:2350H         LINE#         1278
  C:2353H         LINE#         1279
  C:2354H         LINE#         1280
  C:2355H         LINE#         1281
  C:2356H         LINE#         1282
  C:2358H         LINE#         1283
  C:2359H         LINE#         1284
  C:235AH         LINE#         1285
  C:235BH         LINE#         1288
  C:235EH         LINE#         1289
  C:235FH         LINE#         1290
  C:2360H         LINE#         1291
  C:2361H         LINE#         1292
  C:2363H         LINE#         1293
  C:2364H         LINE#         1294
  C:2365H         LINE#         1295
  C:2366H         LINE#         1300
  C:2369H         LINE#         1301
  C:236AH         LINE#         1302
  C:236BH         LINE#         1303
  C:236CH         LINE#         1304
  C:236EH         LINE#         1305
  C:236FH         LINE#         1306
  C:2370H         LINE#         1307
  C:2372H         LINE#         1308
  C:2373H         LINE#         1309
  C:2374H         LINE#         1310
  C:2375H         LINE#         1313
  C:2378H         LINE#         1314
  C:2379H         LINE#         1315
  C:237AH         LINE#         1316
  C:237BH         LINE#         1317
  C:237DH         LINE#         1318
  C:237EH         LINE#         1319
  C:237FH         LINE#         1320
  C:2381H         LINE#         1321
  C:2382H         LINE#         1322
  C:2383H         LINE#         1323
  C:2384H         LINE#         1326
  C:2387H         LINE#         1327
  C:2388H         LINE#         1328
  C:2389H         LINE#         1329
  C:238AH         LINE#         1330
  C:238CH         LINE#         1331
  C:238DH         LINE#         1332
  C:238EH         LINE#         1333
  C:238FH         LINE#         1336
  C:2392H         LINE#         1337
BL51 BANKED LINKER/LOCATER V6.22                                                      11/08/2018  15:11:09  PAGE 22


  C:2393H         LINE#         1338
  C:2394H         LINE#         1339
  C:2395H         LINE#         1340
  C:2397H         LINE#         1341
  C:2398H         LINE#         1342
  C:2399H         LINE#         1343
  C:239AH         LINE#         1346
  C:239DH         LINE#         1347
  C:239EH         LINE#         1348
  C:239FH         LINE#         1349
  C:23A0H         LINE#         1350
  C:23A2H         LINE#         1351
  C:23A3H         LINE#         1352
  C:23A4H         LINE#         1353
  C:23A5H         LINE#         1356
  C:23A8H         LINE#         1357
  C:23A9H         LINE#         1358
  C:23AAH         LINE#         1359
  C:23ABH         LINE#         1360
  C:23ADH         LINE#         1361
  C:23AEH         LINE#         1362
  C:23AFH         LINE#         1363
  C:23B0H         LINE#         1368
  C:23B3H         LINE#         1369
  C:23B4H         LINE#         1370
  C:23B5H         LINE#         1371
  C:23B6H         LINE#         1372
  C:23B8H         LINE#         1373
  C:23B9H         LINE#         1374
  C:23BAH         LINE#         1375
  C:23BCH         LINE#         1376
  C:23BDH         LINE#         1377
  C:23BEH         LINE#         1378
  C:23BFH         LINE#         1381
  C:23C2H         LINE#         1382
  C:23C3H         LINE#         1383
  C:23C4H         LINE#         1384
  C:23C5H         LINE#         1385
  C:23C7H         LINE#         1386
  C:23C8H         LINE#         1387
  C:23C9H         LINE#         1388
  C:23CBH         LINE#         1389
  C:23CCH         LINE#         1390
  C:23CDH         LINE#         1391
  C:23CEH         LINE#         1394
  C:23D1H         LINE#         1395
  C:23D2H         LINE#         1396
  C:23D3H         LINE#         1397
  C:23D4H         LINE#         1398
  C:23D6H         LINE#         1399
  C:23D7H         LINE#         1400
  C:23D8H         LINE#         1401
  C:23D9H         LINE#         1404
  C:23DCH         LINE#         1405
  C:23DDH         LINE#         1406
  C:23DEH         LINE#         1407
  C:23DFH         LINE#         1408
BL51 BANKED LINKER/LOCATER V6.22                                                      11/08/2018  15:11:09  PAGE 23


  C:23E1H         LINE#         1409
  C:23E2H         LINE#         1410
  C:23E3H         LINE#         1411
  C:23E4H         LINE#         1414
  C:23E7H         LINE#         1415
  C:23E8H         LINE#         1416
  C:23E9H         LINE#         1417
  C:23EAH         LINE#         1418
  C:23ECH         LINE#         1419
  C:23EDH         LINE#         1420
  C:23EEH         LINE#         1421
  C:23EFH         LINE#         1424
  C:23F2H         LINE#         1425
  C:23F3H         LINE#         1426
  C:23F4H         LINE#         1427
  C:23F5H         LINE#         1428
  C:23F7H         LINE#         1429
  C:23F8H         LINE#         1430
  C:23F9H         LINE#         1431
  C:23FAH         LINE#         1470
  C:23FDH         LINE#         1471
  C:23FEH         LINE#         1472
  C:23FFH         LINE#         1473
  C:2400H         LINE#         1474
  C:2402H         LINE#         1475
  C:2403H         LINE#         1476
  C:2404H         LINE#         1477
  C:2405H         LINE#         1480
  C:2408H         LINE#         1481
  C:2409H         LINE#         1482
  C:240AH         LINE#         1483
  C:240BH         LINE#         1484
  C:240DH         LINE#         1485
  C:240EH         LINE#         1486
  C:240FH         LINE#         1487
  C:2411H         LINE#         1488
  C:2412H         LINE#         1489
  C:2413H         LINE#         1490
  C:2414H         LINE#         1493
  C:2417H         LINE#         1494
  C:2418H         LINE#         1495
  C:2419H         LINE#         1496
  C:241AH         LINE#         1497
  C:241CH         LINE#         1498
  C:241DH         LINE#         1499
  C:241EH         LINE#         1500
  C:241FH         LINE#         1504
  C:2422H         LINE#         1505
  C:2423H         LINE#         1506
  C:2424H         LINE#         1507
  C:2425H         LINE#         1508
  C:2427H         LINE#         1509
  C:2428H         LINE#         1510
  C:2429H         LINE#         1511
  C:242AH         LINE#         1514
  C:242DH         LINE#         1515
  C:242EH         LINE#         1516
BL51 BANKED LINKER/LOCATER V6.22                                                      11/08/2018  15:11:09  PAGE 24


  C:242FH         LINE#         1517
  C:2430H         LINE#         1518
  C:2432H         LINE#         1519
  C:2433H         LINE#         1520
  C:2434H         LINE#         1521
  C:2436H         LINE#         1522
  C:2437H         LINE#         1523
  C:2438H         LINE#         1524
  C:2439H         LINE#         1527
  C:243CH         LINE#         1528
  C:243DH         LINE#         1529
  C:243EH         LINE#         1530
  C:243FH         LINE#         1531
  C:2441H         LINE#         1532
  C:2442H         LINE#         1533
  C:2443H         LINE#         1534
  C:2444H         LINE#         1538
  C:2447H         LINE#         1539
  C:2448H         LINE#         1540
  C:2449H         LINE#         1541
  C:244AH         LINE#         1542
  C:244CH         LINE#         1543
  C:244DH         LINE#         1544
  C:244EH         LINE#         1545
  C:244FH         LINE#         1548
  C:2452H         LINE#         1549
  C:2453H         LINE#         1550
  C:2454H         LINE#         1551
  C:2455H         LINE#         1552
  C:2457H         LINE#         1553
  C:2458H         LINE#         1554
  C:2459H         LINE#         1555
  C:245BH         LINE#         1556
  C:245CH         LINE#         1557
  C:245DH         LINE#         1558
  C:245EH         LINE#         1561
  C:2461H         LINE#         1562
  C:2462H         LINE#         1563
  C:2463H         LINE#         1564
  C:2464H         LINE#         1565
  C:2466H         LINE#         1566
  C:2467H         LINE#         1567
  C:2468H         LINE#         1568
  C:2469H         LINE#         1572
  C:246CH         LINE#         1573
  C:246DH         LINE#         1574
  C:246EH         LINE#         1575
  C:246FH         LINE#         1576
  C:2471H         LINE#         1577
  C:2472H         LINE#         1578
  C:2473H         LINE#         1579
  C:2474H         LINE#         1582
  C:2477H         LINE#         1583
  C:2478H         LINE#         1584
  C:2479H         LINE#         1585
  C:247AH         LINE#         1586
  C:247CH         LINE#         1587
BL51 BANKED LINKER/LOCATER V6.22                                                      11/08/2018  15:11:09  PAGE 25


  C:247DH         LINE#         1588
  C:247EH         LINE#         1589
  C:2480H         LINE#         1590
  C:2481H         LINE#         1591
  C:2482H         LINE#         1592
  C:2483H         LINE#         1595
  C:2486H         LINE#         1596
  C:2487H         LINE#         1597
  C:2488H         LINE#         1598
  C:2489H         LINE#         1599
  C:248BH         LINE#         1600
  C:248CH         LINE#         1601
  C:248DH         LINE#         1602
  C:248EH         LINE#         1615
  C:2491H         LINE#         1616
  C:2492H         LINE#         1617
  C:2493H         LINE#         1618
  C:2494H         LINE#         1619
  C:2496H         LINE#         1620
  C:2497H         LINE#         1623
  C:249AH         LINE#         1624
  C:249BH         LINE#         1625
  C:249CH         LINE#         1626
  C:249DH         LINE#         1627
  C:249FH         LINE#         1628
  C:24A0H         LINE#         1631
  C:24A3H         LINE#         1632
  C:24A4H         LINE#         1633
  C:24A5H         LINE#         1634
  C:24A6H         LINE#         1635
  C:24A8H         LINE#         1636
  C:24A9H         LINE#         1639
  C:24ACH         LINE#         1640
  C:24ADH         LINE#         1641
  C:24AEH         LINE#         1642
  C:24AFH         LINE#         1643
  C:24B1H         LINE#         1644
  C:24B2H         LINE#         1648
  C:24B5H         LINE#         1649
  C:24B6H         LINE#         1650
  C:24B7H         LINE#         1651
  C:24B8H         LINE#         1652
  C:24BAH         LINE#         1653
  C:24BBH         LINE#         1656
  C:24BEH         LINE#         1657
  C:24BFH         LINE#         1658
  C:24C0H         LINE#         1659
  C:24C1H         LINE#         1660
  C:24C3H         LINE#         1661
  C:24C4H         LINE#         1664
  C:24C7H         LINE#         1665
  C:24C8H         LINE#         1666
  C:24C9H         LINE#         1667
  C:24CAH         LINE#         1668
  C:24CCH         LINE#         1669
  C:24CDH         LINE#         1672
  C:24D0H         LINE#         1673
BL51 BANKED LINKER/LOCATER V6.22                                                      11/08/2018  15:11:09  PAGE 26


  C:24D1H         LINE#         1674
  C:24D2H         LINE#         1675
  C:24D3H         LINE#         1676
  C:24D5H         LINE#         1677
  C:24D6H         LINE#         1691
  C:24D9H         LINE#         1692
  C:24DAH         LINE#         1693
  C:24DBH         LINE#         1694
  C:24DCH         LINE#         1695
  C:24DEH         LINE#         1696
  C:24DFH         LINE#         1697
  C:24E0H         LINE#         1698
  C:24E1H         LINE#         1701
  C:24E4H         LINE#         1702
  C:24E5H         LINE#         1703
  C:24E6H         LINE#         1704
  C:24E7H         LINE#         1705
  C:24E9H         LINE#         1706
  C:24EAH         LINE#         1707
  C:24EBH         LINE#         1708
  C:24ECH         LINE#         1712
  C:24EFH         LINE#         1713
  C:24F0H         LINE#         1714
  C:24F1H         LINE#         1715
  C:24F2H         LINE#         1716
  C:24F4H         LINE#         1717
  C:24F5H         LINE#         1718
  C:24F6H         LINE#         1719
  C:24F7H         LINE#         1722
  C:24FAH         LINE#         1723
  C:24FBH         LINE#         1724
  C:24FCH         LINE#         1725
  C:24FDH         LINE#         1726
  C:24FFH         LINE#         1727
  C:2500H         LINE#         1728
  C:2501H         LINE#         1729
  C:2502H         LINE#         1733
  C:2505H         LINE#         1734
  C:2506H         LINE#         1735
  C:2507H         LINE#         1736
  C:2508H         LINE#         1737
  C:250AH         LINE#         1738
  C:250BH         LINE#         1739
  C:250CH         LINE#         1740
  C:250DH         LINE#         1743
  C:2510H         LINE#         1744
  C:2511H         LINE#         1745
  C:2512H         LINE#         1746
  C:2513H         LINE#         1747
  C:2515H         LINE#         1748
  C:2516H         LINE#         1749
  C:2517H         LINE#         1750
  C:2518H         LINE#         1754
  C:251BH         LINE#         1755
  C:251CH         LINE#         1756
  C:251DH         LINE#         1757
  C:251EH         LINE#         1758
BL51 BANKED LINKER/LOCATER V6.22                                                      11/08/2018  15:11:09  PAGE 27


  C:2520H         LINE#         1759
  C:2521H         LINE#         1760
  C:2522H         LINE#         1761
  C:2523H         LINE#         1764
  C:2526H         LINE#         1765
  C:2527H         LINE#         1766
  C:2528H         LINE#         1767
  C:2529H         LINE#         1768
  C:252BH         LINE#         1769
  C:252CH         LINE#         1770
  C:252DH         LINE#         1771
  C:252EH         LINE#         1775
  C:2531H         LINE#         1776
  C:2532H         LINE#         1777
  C:2533H         LINE#         1778
  C:2534H         LINE#         1779
  C:2536H         LINE#         1780
  C:2537H         LINE#         1781
  C:2538H         LINE#         1782
  C:2539H         LINE#         1785
  C:253CH         LINE#         1786
  C:253DH         LINE#         1787
  C:253EH         LINE#         1788
  C:253FH         LINE#         1789
  C:2541H         LINE#         1790
  C:2542H         LINE#         1791
  C:2543H         LINE#         1792
  C:2544H         LINE#         1796
  C:2547H         LINE#         1797
  C:2548H         LINE#         1798
  C:2549H         LINE#         1799
  C:254AH         LINE#         1800
  C:254CH         LINE#         1801
  C:254DH         LINE#         1802
  C:254EH         LINE#         1803
  C:254FH         LINE#         1806
  C:2552H         LINE#         1807
  C:2553H         LINE#         1808
  C:2554H         LINE#         1809
  C:2555H         LINE#         1810
  C:2557H         LINE#         1811
  C:2558H         LINE#         1812
  C:2559H         LINE#         1813
  C:255AH         LINE#         1817
  C:255DH         LINE#         1818
  C:255EH         LINE#         1819
  C:255FH         LINE#         1820
  C:2560H         LINE#         1821
  C:2562H         LINE#         1822
  C:2563H         LINE#         1823
  C:2564H         LINE#         1824
  C:2565H         LINE#         1827
  C:2568H         LINE#         1828
  C:2569H         LINE#         1829
  C:256AH         LINE#         1830
  C:256BH         LINE#         1831
  C:256DH         LINE#         1832
BL51 BANKED LINKER/LOCATER V6.22                                                      11/08/2018  15:11:09  PAGE 28


  C:256EH         LINE#         1833
  C:256FH         LINE#         1834
  C:2570H         LINE#         1839
  C:2573H         LINE#         1840
  C:2574H         LINE#         1841
  C:2575H         LINE#         1842
  C:2576H         LINE#         1843
  C:2578H         LINE#         1844
  C:2579H         LINE#         1845
  C:257AH         LINE#         1846
  C:257BH         LINE#         1849
  C:257EH         LINE#         1850
  C:257FH         LINE#         1851
  C:2580H         LINE#         1852
  C:2581H         LINE#         1853
  C:2583H         LINE#         1854
  C:2584H         LINE#         1855
  C:2585H         LINE#         1856
  C:2586H         LINE#         1875
  C:2589H         LINE#         1876
  C:258AH         LINE#         1877
  C:258BH         LINE#         1878
  C:258CH         LINE#         1879
  C:258EH         LINE#         1880
  C:258FH         LINE#         1881
  C:2590H         LINE#         1882
  C:2591H         LINE#         1885
  C:2594H         LINE#         1886
  C:2595H         LINE#         1887
  C:2596H         LINE#         1888
  C:2597H         LINE#         1889
  C:2599H         LINE#         1890
  C:259AH         LINE#         1891
  C:259BH         LINE#         1892
  C:259DH         LINE#         1893
  C:259EH         LINE#         1894
  C:259FH         LINE#         1895
  C:25A0H         LINE#         1898
  C:25A3H         LINE#         1899
  C:25A4H         LINE#         1900
  C:25A5H         LINE#         1901
  C:25A6H         LINE#         1902
  C:25A8H         LINE#         1903
  C:25A9H         LINE#         1904
  C:25AAH         LINE#         1905
  C:25ABH         LINE#         1908
  C:25AEH         LINE#         1909
  C:25AFH         LINE#         1910
  C:25B0H         LINE#         1911
  C:25B1H         LINE#         1912
  C:25B3H         LINE#         1913
  C:25B4H         LINE#         1914
  C:25B5H         LINE#         1915
  C:25B7H         LINE#         1916
  C:25B8H         LINE#         1917
  C:25B9H         LINE#         1918
  C:25BAH         LINE#         1921
BL51 BANKED LINKER/LOCATER V6.22                                                      11/08/2018  15:11:09  PAGE 29


  C:25BDH         LINE#         1922
  C:25BEH         LINE#         1923
  C:25BFH         LINE#         1924
  C:25C0H         LINE#         1925
  C:25C2H         LINE#         1926
  C:25C3H         LINE#         1927
  C:25C4H         LINE#         1928
  C:25C5H         LINE#         1931
  C:25C8H         LINE#         1932
  C:25C9H         LINE#         1933
  C:25CAH         LINE#         1934
  C:25CBH         LINE#         1935
  C:25CDH         LINE#         1936
  C:25CEH         LINE#         1937
  C:25CFH         LINE#         1938
  C:25D1H         LINE#         1939
  C:25D2H         LINE#         1940
  C:25D3H         LINE#         1941
  C:25D4H         LINE#         1945
  C:25D7H         LINE#         1946
  C:25D8H         LINE#         1947
  C:25D9H         LINE#         1948
  C:25DAH         LINE#         1949
  C:25DCH         LINE#         1950
  C:25DDH         LINE#         1951
  C:25DEH         LINE#         1952
  C:25DFH         LINE#         1955
  C:25E2H         LINE#         1956
  C:25E3H         LINE#         1957
  C:25E4H         LINE#         1958
  C:25E5H         LINE#         1959
  C:25E7H         LINE#         1960
  C:25E8H         LINE#         1961
  C:25E9H         LINE#         1962
  C:25EBH         LINE#         1963
  C:25ECH         LINE#         1964
  C:25EDH         LINE#         1965
  C:25EEH         LINE#         1968
  C:25F1H         LINE#         1969
  C:25F2H         LINE#         1970
  C:25F3H         LINE#         1971
  C:25F4H         LINE#         1972
  C:25F6H         LINE#         1973
  C:25F7H         LINE#         1974
  C:25F8H         LINE#         1975
  C:25F9H         LINE#         1978
  C:25FCH         LINE#         1979
  C:25FDH         LINE#         1980
  C:25FEH         LINE#         1981
  C:25FFH         LINE#         1982
  C:2601H         LINE#         1983
  C:2602H         LINE#         1984
  C:2603H         LINE#         1985
  C:2605H         LINE#         1986
  C:2606H         LINE#         1987
  C:2607H         LINE#         1988
  C:2608H         LINE#         1991
BL51 BANKED LINKER/LOCATER V6.22                                                      11/08/2018  15:11:09  PAGE 30


  C:260BH         LINE#         1992
  C:260CH         LINE#         1993
  C:260DH         LINE#         1994
  C:260EH         LINE#         1995
  C:2610H         LINE#         1996
  C:2611H         LINE#         1997
  C:2612H         LINE#         1998
  C:2613H         LINE#         2001
  C:2616H         LINE#         2002
  C:2617H         LINE#         2003
  C:2618H         LINE#         2004
  C:2619H         LINE#         2005
  C:261BH         LINE#         2006
  C:261CH         LINE#         2007
  C:261DH         LINE#         2008
  C:261FH         LINE#         2009
  C:2620H         LINE#         2010
  C:2621H         LINE#         2011
  C:2622H         LINE#         2015
  C:2625H         LINE#         2016
  C:2626H         LINE#         2017
  C:2627H         LINE#         2018
  C:2628H         LINE#         2019
  C:262AH         LINE#         2020
  C:262BH         LINE#         2021
  C:262CH         LINE#         2022
  C:262DH         LINE#         2025
  C:2630H         LINE#         2026
  C:2631H         LINE#         2027
  C:2632H         LINE#         2028
  C:2633H         LINE#         2029
  C:2635H         LINE#         2030
  C:2636H         LINE#         2031
  C:2637H         LINE#         2032
  C:2639H         LINE#         2033
  C:263AH         LINE#         2034
  C:263BH         LINE#         2035
  C:263CH         LINE#         2038
  C:263FH         LINE#         2039
  C:2640H         LINE#         2040
  C:2641H         LINE#         2041
  C:2642H         LINE#         2042
  C:2644H         LINE#         2043
  C:2645H         LINE#         2044
  C:2646H         LINE#         2045
  C:2647H         LINE#         2048
  C:264AH         LINE#         2049
  C:264BH         LINE#         2050
  C:264CH         LINE#         2051
  C:264DH         LINE#         2052
  C:264FH         LINE#         2053
  C:2650H         LINE#         2054
  C:2651H         LINE#         2055
  C:2653H         LINE#         2056
  C:2654H         LINE#         2057
  C:2655H         LINE#         2058
  C:2656H         LINE#         2061
BL51 BANKED LINKER/LOCATER V6.22                                                      11/08/2018  15:11:09  PAGE 31


  C:2659H         LINE#         2062
  C:265AH         LINE#         2063
  C:265BH         LINE#         2064
  C:265CH         LINE#         2065
  C:265EH         LINE#         2066
  C:265FH         LINE#         2067
  C:2660H         LINE#         2068
  C:2661H         LINE#         2071
  C:2664H         LINE#         2072
  C:2665H         LINE#         2073
  C:2666H         LINE#         2074
  C:2667H         LINE#         2075
  C:2669H         LINE#         2076
  C:266AH         LINE#         2077
  C:266BH         LINE#         2078
  C:266DH         LINE#         2079
  C:266EH         LINE#         2080
  C:266FH         LINE#         2081
  C:2670H         LINE#         2085
  C:2673H         LINE#         2086
  C:2674H         LINE#         2087
  C:2675H         LINE#         2088
  C:2676H         LINE#         2089
  C:2678H         LINE#         2090
  C:2679H         LINE#         2091
  C:267AH         LINE#         2092
  C:267BH         LINE#         2095
  C:267EH         LINE#         2096
  C:267FH         LINE#         2097
  C:2680H         LINE#         2098
  C:2681H         LINE#         2099
  C:2683H         LINE#         2100
  C:2684H         LINE#         2101
  C:2685H         LINE#         2102
  C:2687H         LINE#         2103
  C:2688H         LINE#         2104
  C:2689H         LINE#         2105
  C:268AH         LINE#         2108
  C:268DH         LINE#         2109
  C:268EH         LINE#         2110
  C:268FH         LINE#         2111
  C:2690H         LINE#         2112
  C:2692H         LINE#         2113
  C:2693H         LINE#         2114
  C:2694H         LINE#         2115
  C:2695H         LINE#         2118
  C:2698H         LINE#         2119
  C:2699H         LINE#         2120
  C:269AH         LINE#         2121
  C:269BH         LINE#         2122
  C:269DH         LINE#         2123
  C:269EH         LINE#         2124
  C:269FH         LINE#         2125
  C:26A1H         LINE#         2126
  C:26A2H         LINE#         2127
  C:26A3H         LINE#         2128
  C:26A4H         LINE#         2131
BL51 BANKED LINKER/LOCATER V6.22                                                      11/08/2018  15:11:09  PAGE 32


  C:26A7H         LINE#         2132
  C:26A8H         LINE#         2133
  C:26A9H         LINE#         2134
  C:26AAH         LINE#         2135
  C:26ACH         LINE#         2136
  C:26ADH         LINE#         2137
  C:26AEH         LINE#         2138
  C:26AFH         LINE#         2141
  C:26B2H         LINE#         2142
  C:26B3H         LINE#         2143
  C:26B4H         LINE#         2144
  C:26B5H         LINE#         2145
  C:26B7H         LINE#         2146
  C:26B8H         LINE#         2147
  C:26B9H         LINE#         2148
  C:26BBH         LINE#         2149
  C:26BCH         LINE#         2150
  C:26BDH         LINE#         2151
  C:26BEH         LINE#         2159
  C:26C1H         LINE#         2160
  C:26C2H         LINE#         2161
  C:26C3H         LINE#         2162
  C:26C4H         LINE#         2163
  C:26C6H         LINE#         2164
  C:26C7H         LINE#         2165
  C:26C8H         LINE#         2166
  C:26CAH         LINE#         2167
  C:26CBH         LINE#         2168
  C:26CCH         LINE#         2169
  C:26CDH         LINE#         2172
  C:26D0H         LINE#         2173
  C:26D1H         LINE#         2174
  C:26D2H         LINE#         2175
  C:26D3H         LINE#         2176
  C:26D5H         LINE#         2177
  C:26D6H         LINE#         2178
  C:26D7H         LINE#         2179
  C:26D9H         LINE#         2180
  C:26DAH         LINE#         2181
  C:26DBH         LINE#         2182
  C:26DCH         LINE#         2185
  C:26DFH         LINE#         2186
  C:26E0H         LINE#         2187
  C:26E1H         LINE#         2188
  C:26E2H         LINE#         2189
  C:26E4H         LINE#         2190
  C:26E5H         LINE#         2191
  C:26E6H         LINE#         2192
  C:26E8H         LINE#         2193
  C:26E9H         LINE#         2194
  C:26EAH         LINE#         2195
  C:26EBH         LINE#         2198
  C:26EEH         LINE#         2199
  C:26EFH         LINE#         2200
  C:26F0H         LINE#         2201
  C:26F1H         LINE#         2202
  C:26F3H         LINE#         2203
BL51 BANKED LINKER/LOCATER V6.22                                                      11/08/2018  15:11:09  PAGE 33


  C:26F4H         LINE#         2204
  C:26F5H         LINE#         2205
  C:26F7H         LINE#         2206
  C:26F8H         LINE#         2207
  C:26F9H         LINE#         2208
  C:26FAH         LINE#         2211
  C:26FDH         LINE#         2212
  C:26FEH         LINE#         2213
  C:26FFH         LINE#         2214
  C:2700H         LINE#         2215
  C:2702H         LINE#         2216
  C:2703H         LINE#         2217
  C:2704H         LINE#         2218
  C:2705H         LINE#         2221
  C:2708H         LINE#         2222
  C:2709H         LINE#         2223
  C:270AH         LINE#         2224
  C:270BH         LINE#         2225
  C:270DH         LINE#         2226
  C:270EH         LINE#         2227
  C:270FH         LINE#         2228
  C:2710H         LINE#         2232
  C:2713H         LINE#         2233
  C:2714H         LINE#         2234
  C:2715H         LINE#         2235
  C:2716H         LINE#         2236
  C:2718H         LINE#         2237
  C:2719H         LINE#         2238
  C:271AH         LINE#         2239
  C:271CH         LINE#         2240
  C:271DH         LINE#         2241
  C:271EH         LINE#         2242
  C:271FH         LINE#         2245
  C:2722H         LINE#         2246
  C:2723H         LINE#         2247
  C:2724H         LINE#         2248
  C:2725H         LINE#         2249
  C:2727H         LINE#         2250
  C:2728H         LINE#         2251
  C:2729H         LINE#         2252
  C:272BH         LINE#         2253
  C:272CH         LINE#         2254
  C:272DH         LINE#         2255
  C:272EH         LINE#         2258
  C:2731H         LINE#         2259
  C:2732H         LINE#         2260
  C:2733H         LINE#         2261
  C:2734H         LINE#         2262
  C:2736H         LINE#         2263
  C:2737H         LINE#         2264
  C:2738H         LINE#         2265
  C:273AH         LINE#         2266
  C:273BH         LINE#         2267
  C:273CH         LINE#         2268
  C:273DH         LINE#         2271
  C:2740H         LINE#         2272
  C:2741H         LINE#         2273
BL51 BANKED LINKER/LOCATER V6.22                                                      11/08/2018  15:11:09  PAGE 34


  C:2742H         LINE#         2274
  C:2743H         LINE#         2275
  C:2745H         LINE#         2276
  C:2746H         LINE#         2277
  C:2747H         LINE#         2278
  C:2749H         LINE#         2279
  C:274AH         LINE#         2280
  C:274BH         LINE#         2281
  C:274CH         LINE#         2284
  C:274FH         LINE#         2285
  C:2750H         LINE#         2286
  C:2751H         LINE#         2287
  C:2752H         LINE#         2288
  C:2754H         LINE#         2289
  C:2755H         LINE#         2290
  C:2756H         LINE#         2291
  C:2757H         LINE#         2294
  C:275AH         LINE#         2295
  C:275BH         LINE#         2296
  C:275CH         LINE#         2297
  C:275DH         LINE#         2298
  C:275FH         LINE#         2299
  C:2760H         LINE#         2300
  C:2761H         LINE#         2301
  C:2762H         LINE#         2305
  C:2765H         LINE#         2306
  C:2766H         LINE#         2307
  C:2767H         LINE#         2308
  C:2768H         LINE#         2309
  C:276AH         LINE#         2310
  C:276BH         LINE#         2311
  C:276CH         LINE#         2312
  C:276EH         LINE#         2313
  C:276FH         LINE#         2314
  C:2770H         LINE#         2315
  C:2771H         LINE#         2318
  C:2774H         LINE#         2319
  C:2775H         LINE#         2320
  C:2776H         LINE#         2321
  C:2777H         LINE#         2322
  C:2779H         LINE#         2323
  C:277AH         LINE#         2324
  C:277BH         LINE#         2325
  C:277DH         LINE#         2326
  C:277EH         LINE#         2327
  C:277FH         LINE#         2328
  C:2780H         LINE#         2331
  C:2783H         LINE#         2332
  C:2784H         LINE#         2333
  C:2785H         LINE#         2334
  C:2786H         LINE#         2335
  C:2788H         LINE#         2336
  C:2789H         LINE#         2337
  C:278AH         LINE#         2338
  C:278CH         LINE#         2339
  C:278DH         LINE#         2340
  C:278EH         LINE#         2341
BL51 BANKED LINKER/LOCATER V6.22                                                      11/08/2018  15:11:09  PAGE 35


  C:278FH         LINE#         2344
  C:2792H         LINE#         2345
  C:2793H         LINE#         2346
  C:2794H         LINE#         2347
  C:2795H         LINE#         2348
  C:2797H         LINE#         2349
  C:2798H         LINE#         2350
  C:2799H         LINE#         2351
  C:279BH         LINE#         2352
  C:279CH         LINE#         2353
  C:279DH         LINE#         2354
  C:279EH         LINE#         2357
  C:27A1H         LINE#         2358
  C:27A2H         LINE#         2359
  C:27A3H         LINE#         2360
  C:27A4H         LINE#         2361
  C:27A6H         LINE#         2362
  C:27A7H         LINE#         2363
  C:27A8H         LINE#         2364
  C:27A9H         LINE#         2367
  C:27ACH         LINE#         2368
  C:27ADH         LINE#         2369
  C:27AEH         LINE#         2370
  C:27AFH         LINE#         2371
  C:27B1H         LINE#         2372
  C:27B2H         LINE#         2373
  C:27B3H         LINE#         2374
  C:27B4H         LINE#         2378
  C:27B7H         LINE#         2379
  C:27B8H         LINE#         2380
  C:27B9H         LINE#         2381
  C:27BAH         LINE#         2382
  C:27BCH         LINE#         2383
  C:27BDH         LINE#         2384
  C:27BEH         LINE#         2385
  C:27C0H         LINE#         2386
  C:27C1H         LINE#         2387
  C:27C2H         LINE#         2388
  C:27C3H         LINE#         2391
  C:27C6H         LINE#         2392
  C:27C7H         LINE#         2393
  C:27C8H         LINE#         2394
  C:27C9H         LINE#         2395
  C:27CBH         LINE#         2396
  C:27CCH         LINE#         2397
  C:27CDH         LINE#         2398
  C:27CFH         LINE#         2399
  C:27D0H         LINE#         2400
  C:27D1H         LINE#         2401
  C:27D2H         LINE#         2404
  C:27D5H         LINE#         2405
  C:27D6H         LINE#         2406
  C:27D7H         LINE#         2407
  C:27D8H         LINE#         2408
  C:27DAH         LINE#         2409
  C:27DBH         LINE#         2410
  C:27DCH         LINE#         2411
BL51 BANKED LINKER/LOCATER V6.22                                                      11/08/2018  15:11:09  PAGE 36


  C:27DEH         LINE#         2412
  C:27DFH         LINE#         2413
  C:27E0H         LINE#         2414
  C:27E1H         LINE#         2417
  C:27E4H         LINE#         2418
  C:27E5H         LINE#         2419
  C:27E6H         LINE#         2420
  C:27E7H         LINE#         2421
  C:27E9H         LINE#         2422
  C:27EAH         LINE#         2423
  C:27EBH         LINE#         2424
  C:27EDH         LINE#         2425
  C:27EEH         LINE#         2426
  C:27EFH         LINE#         2427
  C:27F0H         LINE#         2430
  C:27F3H         LINE#         2431
  C:27F4H         LINE#         2432
  C:27F5H         LINE#         2433
  C:27F6H         LINE#         2434
  C:27F8H         LINE#         2435
  C:27F9H         LINE#         2436
  C:27FAH         LINE#         2437
  C:27FBH         LINE#         2440
  C:27FEH         LINE#         2441
  C:27FFH         LINE#         2442
  C:2800H         LINE#         2443
  C:2801H         LINE#         2444
  C:2803H         LINE#         2445
  C:2804H         LINE#         2446
  C:2805H         LINE#         2447
  C:2806H         LINE#         2459
  C:2809H         LINE#         2460
  C:280CH         LINE#         2463
  C:280FH         LINE#         2464
  C:2812H         LINE#         2467
  C:2815H         LINE#         2468
  C:2818H         LINE#         2471
  C:281BH         LINE#         2472
  C:281EH         LINE#         2478
  C:2821H         LINE#         2479
  C:2824H         LINE#         2482
  C:2827H         LINE#         2483
  C:282AH         LINE#         2486
  C:282DH         LINE#         2487
  C:2830H         LINE#         2490
  C:2833H         LINE#         2491
  C:2836H         LINE#         2495
  C:2839H         LINE#         2496
  C:283CH         LINE#         2499
  C:283FH         LINE#         2500
  C:2842H         LINE#         2503
  C:2845H         LINE#         2504
  C:2848H         LINE#         2507
  C:284BH         LINE#         2508
  C:284EH         LINE#         2514
  C:2851H         LINE#         2515
  C:2852H         LINE#         2516
BL51 BANKED LINKER/LOCATER V6.22                                                      11/08/2018  15:11:09  PAGE 37


  C:2853H         LINE#         2517
  C:2854H         LINE#         2518
  C:2856H         LINE#         2519
  C:2857H         LINE#         2520
  C:2858H         LINE#         2521
  C:2859H         LINE#         2525
  C:285CH         LINE#         2528
  C:285FH         LINE#         2531
  C:2862H         LINE#         2534
  C:2865H         LINE#         2539
  C:2867H         LINE#         2542
  C:2869H         LINE#         2547
  C:2E4FH         LINE#         2563
  C:2E52H         LINE#         2564
  C:2E53H         LINE#         2565
  C:2E54H         LINE#         2566
  C:2E55H         LINE#         2567
  C:2E57H         LINE#         2568
  C:2E58H         LINE#         2569
  C:2E59H         LINE#         2570
  C:2E5BH         LINE#         2571
  C:2E5CH         LINE#         2572
  C:2E5DH         LINE#         2573
  C:2E5EH         LINE#         2576
  C:2E61H         LINE#         2577
  C:2E62H         LINE#         2578
  C:2E63H         LINE#         2579
  C:2E64H         LINE#         2580
  C:2E66H         LINE#         2581
  C:2E67H         LINE#         2582
  C:2E68H         LINE#         2583
  C:2E6AH         LINE#         2584
  C:2E6BH         LINE#         2585
  C:2E6CH         LINE#         2586
  C:2E6DH         LINE#         2589
  C:2E70H         LINE#         2590
  C:2E71H         LINE#         2591
  C:2E72H         LINE#         2592
  C:2E73H         LINE#         2593
  C:2E75H         LINE#         2594
  C:2E76H         LINE#         2595
  C:2E77H         LINE#         2596
  C:2E79H         LINE#         2597
  C:2E7AH         LINE#         2598
  C:2E7BH         LINE#         2599
  C:2E7CH         LINE#         2602
  C:2E7FH         LINE#         2603
  C:2E80H         LINE#         2604
  C:2E81H         LINE#         2605
  C:2E82H         LINE#         2606
  C:2E84H         LINE#         2607
  C:2E85H         LINE#         2608
  C:2E86H         LINE#         2609
  C:2E88H         LINE#         2610
  C:2E89H         LINE#         2611
  C:2E8AH         LINE#         2612
  C:2E8BH         LINE#         2618
BL51 BANKED LINKER/LOCATER V6.22                                                      11/08/2018  15:11:09  PAGE 38


  C:2E8EH         LINE#         2619
  C:2E8FH         LINE#         2620
  C:2E90H         LINE#         2621
  C:2E91H         LINE#         2622
  C:2E93H         LINE#         2623
  C:2E94H         LINE#         2624
  C:2E95H         LINE#         2625
  C:2E97H         LINE#         2626
  C:2E98H         LINE#         2627
  C:2E99H         LINE#         2628
  C:2E9AH         LINE#         2631
  C:2E9DH         LINE#         2632
  C:2E9EH         LINE#         2633
  C:2E9FH         LINE#         2634
  C:2EA0H         LINE#         2635
  C:2EA2H         LINE#         2636
  C:2EA3H         LINE#         2637
  C:2EA4H         LINE#         2638
  C:2EA6H         LINE#         2639
  C:2EA7H         LINE#         2640
  C:2EA8H         LINE#         2641
  C:2EA9H         LINE#         2644
  C:2EACH         LINE#         2645
  C:2EADH         LINE#         2646
  C:2EAEH         LINE#         2647
  C:2EAFH         LINE#         2648
  C:2EB1H         LINE#         2649
  C:2EB2H         LINE#         2650
  C:2EB3H         LINE#         2651
  C:2EB5H         LINE#         2652
  C:2EB6H         LINE#         2653
  C:2EB7H         LINE#         2654
  C:2EB8H         LINE#         2657
  C:2EBBH         LINE#         2658
  C:2EBCH         LINE#         2659
  C:2EBDH         LINE#         2660
  C:2EBEH         LINE#         2661
  C:2EC0H         LINE#         2662
  C:2EC1H         LINE#         2663
  C:2EC2H         LINE#         2664
  C:2EC3H         LINE#         2670
  C:2EC6H         LINE#         2671
  C:2EC7H         LINE#         2672
  C:2EC8H         LINE#         2673
  C:2EC9H         LINE#         2674
  C:2ECBH         LINE#         2675
  C:2ECCH         LINE#         2676
  C:2ECDH         LINE#         2677
  C:2ECEH         LINE#         2680
  C:2ED1H         LINE#         2681
  C:2ED2H         LINE#         2682
  C:2ED3H         LINE#         2683
  C:2ED4H         LINE#         2684
  C:2ED6H         LINE#         2685
  C:2ED7H         LINE#         2686
  C:2ED8H         LINE#         2687
  C:2ED9H         LINE#         2690
BL51 BANKED LINKER/LOCATER V6.22                                                      11/08/2018  15:11:09  PAGE 39


  C:2EDCH         LINE#         2691
  C:2EDDH         LINE#         2692
  C:2EDEH         LINE#         2693
  C:2EDFH         LINE#         2694
  C:2EE1H         LINE#         2695
  C:2EE2H         LINE#         2696
  C:2EE3H         LINE#         2697
  C:2EE4H         LINE#         2700
  C:2EE7H         LINE#         2701
  C:2EE8H         LINE#         2702
  C:2EE9H         LINE#         2703
  C:2EEAH         LINE#         2704
  C:2EECH         LINE#         2705
  C:2EEDH         LINE#         2706
  C:2EEEH         LINE#         2707
  C:2EEFH         LINE#         2712
  C:2EF2H         LINE#         2713
  C:2EF3H         LINE#         2714
  C:2EF4H         LINE#         2715
  C:2EF5H         LINE#         2716
  C:2EF7H         LINE#         2717
  C:2EF8H         LINE#         2718
  C:2EF9H         LINE#         2719
  C:2EFAH         LINE#         2722
  C:2EFDH         LINE#         2723
  C:2EFEH         LINE#         2724
  C:2EFFH         LINE#         2725
  C:2F00H         LINE#         2726
  C:2F02H         LINE#         2727
  C:2F03H         LINE#         2728
  C:2F04H         LINE#         2729
  C:2F05H         LINE#         2732
  C:2F08H         LINE#         2733
  C:2F09H         LINE#         2734
  C:2F0AH         LINE#         2735
  C:2F0BH         LINE#         2736
  C:2F0DH         LINE#         2737
  C:2F0EH         LINE#         2738
  C:2F0FH         LINE#         2739
  C:2F10H         LINE#         2742
  C:2F13H         LINE#         2743
  C:2F14H         LINE#         2744
  C:2F15H         LINE#         2745
  C:2F16H         LINE#         2746
  C:2F18H         LINE#         2747
  C:2F19H         LINE#         2748
  C:2F1AH         LINE#         2749
  C:2F1BH         LINE#         2754
  C:2F1EH         LINE#         2755
  C:2F1FH         LINE#         2756
  C:2F20H         LINE#         2757
  C:2F21H         LINE#         2758
  C:2F23H         LINE#         2759
  C:2F24H         LINE#         2760
  C:2F25H         LINE#         2761
  C:2F26H         LINE#         2764
  C:2F29H         LINE#         2765
BL51 BANKED LINKER/LOCATER V6.22                                                      11/08/2018  15:11:09  PAGE 40


  C:2F2AH         LINE#         2766
  C:2F2BH         LINE#         2767
  C:2F2CH         LINE#         2768
  C:2F2EH         LINE#         2769
  C:2F2FH         LINE#         2770
  C:2F30H         LINE#         2771
  C:2F31H         LINE#         2774
  C:2F34H         LINE#         2775
  C:2F35H         LINE#         2776
  C:2F36H         LINE#         2777
  C:2F37H         LINE#         2778
  C:2F39H         LINE#         2779
  C:2F3AH         LINE#         2780
  C:2F3BH         LINE#         2781
  C:2F3CH         LINE#         2784
  C:2F3FH         LINE#         2785
  C:2F40H         LINE#         2786
  C:2F41H         LINE#         2787
  C:2F42H         LINE#         2788
  C:2F44H         LINE#         2789
  C:2F45H         LINE#         2790
  C:2F46H         LINE#         2791
  C:2F47H         LINE#         2795
  C:2F4AH         LINE#         2796
  C:2F4BH         LINE#         2797
  C:2F4CH         LINE#         2798
  C:2F4DH         LINE#         2799
  C:2F4FH         LINE#         2800
  C:2F50H         LINE#         2801
  C:2F51H         LINE#         2802
  C:2F52H         LINE#         2806
  C:2F54H         LINE#         2809
  C:2F56H         LINE#         2812
  C:2F58H         LINE#         2815
  C:2F5AH         LINE#         2819
  C:3A98H         LINE#         2835
  C:3A9BH         LINE#         2838
  C:3A9DH         LINE#         2841
  C:3A9FH         LINE#         2844
  C:3AA2H         LINE#         2845
  C:3AA3H         LINE#         2846
  C:3AA4H         LINE#         2847
  C:3AA5H         LINE#         2848
  C:3AA7H         LINE#         2849
  C:3AA8H         LINE#         2850
  C:3AA9H         LINE#         2851
  C:3AAAH         LINE#         2854
  C:3AADH         LINE#         2855
  C:3AAEH         LINE#         2856
  C:3AAFH         LINE#         2857
  C:3AB0H         LINE#         2858
  C:3AB2H         LINE#         2859
  C:3AB3H         LINE#         2860
  C:3AB4H         LINE#         2861
  C:3AB5H         LINE#         2865
  C:2BAAH         LINE#         2884
  C:2BADH         LINE#         2885
BL51 BANKED LINKER/LOCATER V6.22                                                      11/08/2018  15:11:09  PAGE 41


  C:2BAEH         LINE#         2886
  C:2BAFH         LINE#         2889
  C:2BB2H         LINE#         2890
  C:2BB3H         LINE#         2891
  C:2BB4H         LINE#         2894
  C:2BB7H         LINE#         2895
  C:2BB8H         LINE#         2896
  C:2BB9H         LINE#         2899
  C:2BBCH         LINE#         2900
  C:2BBEH         LINE#         2901
  C:2BBFH         LINE#         2904
  C:2BC2H         LINE#         2905
  C:2BC3H         LINE#         2906
  C:2BC4H         LINE#         2909
  C:2BC7H         LINE#         2910
  C:2BC8H         LINE#         2911
  C:2BC9H         LINE#         2915
  C:2BCCH         LINE#         2916
  C:2BCDH         LINE#         2917
  C:2BCEH         LINE#         2920
  C:2BD1H         LINE#         2921
  C:2BD2H         LINE#         2922
  C:2BD3H         LINE#         2925
  C:2BD6H         LINE#         2926
  C:2BD7H         LINE#         2927
  C:2BD8H         LINE#         2930
  C:2BDBH         LINE#         2931
  C:2BDDH         LINE#         2932
  C:2BDEH         LINE#         2935
  C:2BE1H         LINE#         2936
  C:2BE2H         LINE#         2937
  C:2BE3H         LINE#         2940
  C:2BE6H         LINE#         2941
  C:2BE7H         LINE#         2942
  C:2BE8H         LINE#         2946
  C:2BEBH         LINE#         2947
  C:2BECH         LINE#         2948
  C:2BEDH         LINE#         2951
  C:2BF0H         LINE#         2952
  C:2BF1H         LINE#         2953
  C:2BF2H         LINE#         2956
  C:2BF5H         LINE#         2957
  C:2BF6H         LINE#         2958
  C:2BF7H         LINE#         2961
  C:2BFAH         LINE#         2962
  C:2BFCH         LINE#         2963
  C:2BFDH         LINE#         2966
  C:2C00H         LINE#         2967
  C:2C01H         LINE#         2968
  C:2C02H         LINE#         2971
  C:2C05H         LINE#         2972
  C:2C06H         LINE#         2973
  C:2C07H         LINE#         2979
  C:2C0AH         LINE#         2980
  C:2C0BH         LINE#         2981
  C:2C0CH         LINE#         2982
  C:2C0DH         LINE#         2983
BL51 BANKED LINKER/LOCATER V6.22                                                      11/08/2018  15:11:09  PAGE 42


  C:2C0FH         LINE#         2984
  C:2C10H         LINE#         2985
  C:2C11H         LINE#         2986
  C:2C12H         LINE#         2989
  C:2C15H         LINE#         2990
  C:2C16H         LINE#         2991
  C:2C17H         LINE#         2992
  C:2C18H         LINE#         2993
  C:2C1AH         LINE#         2994
  C:2C1BH         LINE#         2995
  C:2C1CH         LINE#         2996
  C:2C1DH         LINE#         2999
  C:2C20H         LINE#         3000
  C:2C21H         LINE#         3001
  C:2C22H         LINE#         3002
  C:2C23H         LINE#         3003
  C:2C25H         LINE#         3004
  C:2C26H         LINE#         3005
  C:2C27H         LINE#         3006
  C:2C28H         LINE#         3009
  C:2C2BH         LINE#         3010
  C:2C2CH         LINE#         3011
  C:2C2DH         LINE#         3012
  C:2C2EH         LINE#         3013
  C:2C30H         LINE#         3014
  C:2C31H         LINE#         3015
  C:2C32H         LINE#         3016
  C:2C33H         LINE#         3021
  C:2C36H         LINE#         3022
  C:2C37H         LINE#         3023
  C:2C38H         LINE#         3024
  C:2C39H         LINE#         3025
  C:2C3BH         LINE#         3026
  C:2C3CH         LINE#         3027
  C:2C3DH         LINE#         3028
  C:2C3FH         LINE#         3029
  C:2C40H         LINE#         3030
  C:2C41H         LINE#         3031
  C:2C42H         LINE#         3032
  C:2C45H         LINE#         3033
  C:2C46H         LINE#         3034
  C:2C47H         LINE#         3035
  C:2C48H         LINE#         3036
  C:2C4AH         LINE#         3037
  C:2C4BH         LINE#         3038
  C:2C4CH         LINE#         3039
  C:2C4DH         LINE#         3040
  C:2C50H         LINE#         3041
  C:2C51H         LINE#         3042
  C:2C52H         LINE#         3043
  C:2C53H         LINE#         3044
  C:2C55H         LINE#         3045
  C:2C56H         LINE#         3046
  C:2C57H         LINE#         3047
  C:2C58H         LINE#         3048
  C:2C5BH         LINE#         3049
  C:2C5CH         LINE#         3050
BL51 BANKED LINKER/LOCATER V6.22                                                      11/08/2018  15:11:09  PAGE 43


  C:2C5DH         LINE#         3051
  C:2C5EH         LINE#         3052
  C:2C60H         LINE#         3053
  C:2C61H         LINE#         3054
  C:2C62H         LINE#         3055
  C:2C63H         LINE#         3056
  C:2C66H         LINE#         3057
  C:2C67H         LINE#         3058
  C:2C68H         LINE#         3059
  C:2C69H         LINE#         3060
  C:2C6BH         LINE#         3061
  C:2C6CH         LINE#         3062
  C:2C6DH         LINE#         3063
  C:2C6EH         LINE#         3066
  C:2C71H         LINE#         3067
  C:2C72H         LINE#         3068
  C:2C73H         LINE#         3069
  C:2C74H         LINE#         3070
  C:2C76H         LINE#         3071
  C:2C77H         LINE#         3072
  C:2C78H         LINE#         3073
  C:2C7AH         LINE#         3074
  C:2C7BH         LINE#         3075
  C:2C7CH         LINE#         3076
  C:2C7DH         LINE#         3077
  C:2C80H         LINE#         3078
  C:2C81H         LINE#         3079
  C:2C82H         LINE#         3080
  C:2C83H         LINE#         3081
  C:2C85H         LINE#         3082
  C:2C86H         LINE#         3083
  C:2C87H         LINE#         3084
  C:2C88H         LINE#         3085
  C:2C8BH         LINE#         3086
  C:2C8CH         LINE#         3087
  C:2C8DH         LINE#         3088
  C:2C8EH         LINE#         3089
  C:2C90H         LINE#         3090
  C:2C91H         LINE#         3091
  C:2C92H         LINE#         3092
  C:2C93H         LINE#         3093
  C:2C96H         LINE#         3094
  C:2C97H         LINE#         3095
  C:2C98H         LINE#         3096
  C:2C99H         LINE#         3097
  C:2C9BH         LINE#         3098
  C:2C9CH         LINE#         3099
  C:2C9DH         LINE#         3100
  C:2C9EH         LINE#         3101
  C:2CA1H         LINE#         3102
  C:2CA2H         LINE#         3103
  C:2CA3H         LINE#         3104
  C:2CA4H         LINE#         3105
  C:2CA6H         LINE#         3106
  C:2CA7H         LINE#         3107
  C:2CA8H         LINE#         3108
  C:2CA9H         LINE#         3111
BL51 BANKED LINKER/LOCATER V6.22                                                      11/08/2018  15:11:09  PAGE 44


  C:2CACH         LINE#         3112
  C:2CADH         LINE#         3113
  C:2CAEH         LINE#         3114
  C:2CAFH         LINE#         3115
  C:2CB1H         LINE#         3116
  C:2CB2H         LINE#         3117
  C:2CB3H         LINE#         3118
  C:2CB4H         LINE#         3119
  C:2CB7H         LINE#         3120
  C:2CB8H         LINE#         3121
  C:2CB9H         LINE#         3122
  C:2CBAH         LINE#         3123
  C:2CBCH         LINE#         3124
  C:2CBDH         LINE#         3125
  C:2CBEH         LINE#         3126
  C:2CBFH         LINE#         3127
  C:2CC2H         LINE#         3128
  C:2CC3H         LINE#         3129
  C:2CC4H         LINE#         3130
  C:2CC5H         LINE#         3131
  C:2CC7H         LINE#         3132
  C:2CC8H         LINE#         3133
  C:2CC9H         LINE#         3134
  C:2CCAH         LINE#         3135
  C:2CCDH         LINE#         3136
  C:2CCEH         LINE#         3137
  C:2CCFH         LINE#         3138
  C:2CD0H         LINE#         3139
  C:2CD2H         LINE#         3140
  C:2CD3H         LINE#         3141
  C:2CD4H         LINE#         3142
  C:2CD5H         LINE#         3143
  C:2CD8H         LINE#         3144
  C:2CD9H         LINE#         3145
  C:2CDAH         LINE#         3146
  C:2CDBH         LINE#         3147
  C:2CDDH         LINE#         3148
  C:2CDEH         LINE#         3149
  C:2CDFH         LINE#         3150
  C:2CE0H         LINE#         3153
  C:2CE3H         LINE#         3154
  C:2CE4H         LINE#         3155
  C:2CE5H         LINE#         3156
  C:2CE6H         LINE#         3157
  C:2CE8H         LINE#         3158
  C:2CE9H         LINE#         3159
  C:2CEAH         LINE#         3160
  C:2CEBH         LINE#         3161
  C:2CEEH         LINE#         3162
  C:2CEFH         LINE#         3163
  C:2CF0H         LINE#         3164
  C:2CF1H         LINE#         3165
  C:2CF3H         LINE#         3166
  C:2CF4H         LINE#         3167
  C:2CF5H         LINE#         3168
  C:2CF6H         LINE#         3169
  C:2CF9H         LINE#         3170
BL51 BANKED LINKER/LOCATER V6.22                                                      11/08/2018  15:11:09  PAGE 45


  C:2CFAH         LINE#         3171
  C:2CFBH         LINE#         3172
  C:2CFCH         LINE#         3173
  C:2CFEH         LINE#         3174
  C:2CFFH         LINE#         3175
  C:2D00H         LINE#         3176
  C:2D01H         LINE#         3177
  C:2D04H         LINE#         3178
  C:2D05H         LINE#         3179
  C:2D06H         LINE#         3180
  C:2D07H         LINE#         3181
  C:2D09H         LINE#         3182
  C:2D0AH         LINE#         3183
  C:2D0BH         LINE#         3184
  C:2D0CH         LINE#         3185
  C:2D0FH         LINE#         3186
  C:2D10H         LINE#         3187
  C:2D11H         LINE#         3188
  C:2D12H         LINE#         3189
  C:2D14H         LINE#         3190
  C:2D15H         LINE#         3191
  C:2D16H         LINE#         3192
  C:2D17H         LINE#         3197
  C:3A56H         LINE#         3210
  C:3A59H         LINE#         3211
  C:3A5BH         LINE#         3212
  C:3A5CH         LINE#         3215
  C:3A5FH         LINE#         3216
  C:3A60H         LINE#         3217
  C:3A61H         LINE#         3220
  C:3A64H         LINE#         3223
  C:3A67H         LINE#         3226
  C:3A6AH         LINE#         3230
  C:3A6DH         LINE#         3233
  C:3A70H         LINE#         3238
  C:3A72H         LINE#         3241
  C:3A74H         LINE#         3244
  C:3A76H         LINE#         3247
  C:3A78H         LINE#         3251
  C:3429H         LINE#         3265
  C:342CH         LINE#         3266
  C:342DH         LINE#         3267
  C:342EH         LINE#         3270
  C:3431H         LINE#         3271
  C:3432H         LINE#         3272
  C:3433H         LINE#         3273
  C:3434H         LINE#         3274
  C:3435H         LINE#         3275
  C:3436H         LINE#         3278
  C:3439H         LINE#         3279
  C:343AH         LINE#         3280
  C:343BH         LINE#         3281
  C:343CH         LINE#         3282
  C:343DH         LINE#         3283
  C:343EH         LINE#         3286
  C:3441H         LINE#         3287
  C:3442H         LINE#         3288
BL51 BANKED LINKER/LOCATER V6.22                                                      11/08/2018  15:11:09  PAGE 46


  C:3443H         LINE#         3289
  C:3444H         LINE#         3290
  C:3446H         LINE#         3291
  C:3447H         LINE#         3292
  C:3448H         LINE#         3293
  C:3449H         LINE#         3296
  C:344CH         LINE#         3297
  C:344DH         LINE#         3298
  C:344EH         LINE#         3299
  C:344FH         LINE#         3300
  C:3451H         LINE#         3301
  C:3452H         LINE#         3302
  C:3453H         LINE#         3303
  C:3454H         LINE#         3306
  C:3457H         LINE#         3307
  C:3458H         LINE#         3308
  C:3459H         LINE#         3309
  C:345AH         LINE#         3310
  C:345CH         LINE#         3311
  C:345DH         LINE#         3312
  C:345EH         LINE#         3313
  C:345FH         LINE#         3316
  C:3462H         LINE#         3317
  C:3463H         LINE#         3318
  C:3464H         LINE#         3319
  C:3465H         LINE#         3320
  C:3467H         LINE#         3321
  C:3468H         LINE#         3322
  C:3469H         LINE#         3323
  C:346AH         LINE#         3326
  C:346DH         LINE#         3327
  C:346EH         LINE#         3328
  C:346FH         LINE#         3329
  C:3470H         LINE#         3330
  C:3472H         LINE#         3331
  C:3473H         LINE#         3332
  C:3474H         LINE#         3333
  C:3475H         LINE#         3336
  C:3478H         LINE#         3337
  C:3479H         LINE#         3338
  C:347AH         LINE#         3339
  C:347BH         LINE#         3340
  C:347DH         LINE#         3341
  C:347EH         LINE#         3342
  C:347FH         LINE#         3343
  C:3480H         LINE#         3346
  C:3483H         LINE#         3347
  C:3484H         LINE#         3348
  C:3485H         LINE#         3349
  C:3486H         LINE#         3350
  C:3488H         LINE#         3351
  C:3489H         LINE#         3352
  C:348AH         LINE#         3353
  C:348BH         LINE#         3356
  C:348EH         LINE#         3357
  C:348FH         LINE#         3358
  C:3490H         LINE#         3359
BL51 BANKED LINKER/LOCATER V6.22                                                      11/08/2018  15:11:09  PAGE 47


  C:3491H         LINE#         3360
  C:3493H         LINE#         3361
  C:3494H         LINE#         3362
  C:3495H         LINE#         3363
  C:3496H         LINE#         3366
  C:3498H         LINE#         3369
  C:349AH         LINE#         3373
  C:39D5H         LINE#         3387
  C:39D8H         LINE#         3388
  C:39D9H         LINE#         3389
  C:39DAH         LINE#         3392
  C:39DDH         LINE#         3393
  C:39DFH         LINE#         3394
  C:39E0H         LINE#         3395
  C:39E1H         LINE#         3396
  C:39E3H         LINE#         3397
  C:39E4H         LINE#         3401
  C:39E7H         LINE#         3402
  C:39E8H         LINE#         3403
  C:39E9H         LINE#         3404
  C:39EAH         LINE#         3405
  C:39ECH         LINE#         3406
  C:39EDH         LINE#         3407
  C:39EEH         LINE#         3408
  C:39EFH         LINE#         3411
  C:39F2H         LINE#         3412
  C:39F3H         LINE#         3413
  C:39F4H         LINE#         3414
  C:39F5H         LINE#         3415
  C:39F7H         LINE#         3416
  C:39F8H         LINE#         3417
  C:39F9H         LINE#         3418
  C:39FAH         LINE#         3421
  C:39FDH         LINE#         3424
  C:39FFH         LINE#         3427
  C:3A01H         LINE#         3431
  C:3969H         LINE#         3444
  C:396CH         LINE#         3445
  C:396DH         LINE#         3446
  C:396EH         LINE#         3449
  C:3971H         LINE#         3450
  C:3973H         LINE#         3451
  C:3974H         LINE#         3452
  C:3975H         LINE#         3453
  C:3977H         LINE#         3454
  C:3978H         LINE#         3458
  C:397BH         LINE#         3459
  C:397CH         LINE#         3460
  C:397DH         LINE#         3461
  C:397EH         LINE#         3462
  C:3980H         LINE#         3463
  C:3981H         LINE#         3464
  C:3982H         LINE#         3465
  C:3983H         LINE#         3468
  C:3986H         LINE#         3469
  C:3987H         LINE#         3470
  C:3988H         LINE#         3471
BL51 BANKED LINKER/LOCATER V6.22                                                      11/08/2018  15:11:09  PAGE 48


  C:3989H         LINE#         3472
  C:398BH         LINE#         3473
  C:398CH         LINE#         3474
  C:398DH         LINE#         3475
  C:398EH         LINE#         3478
  C:3991H         LINE#         3479
  C:3992H         LINE#         3480
  C:3993H         LINE#         3481
  C:3994H         LINE#         3482
  C:3996H         LINE#         3483
  C:3997H         LINE#         3484
  C:3998H         LINE#         3485
  C:3999H         LINE#         3490
  C:399BH         LINE#         3493
  C:399DH         LINE#         3496
  C:399FH         LINE#         3500
  C:39A0H         LINE#         3513
  C:39A3H         LINE#         3514
  C:39A4H         LINE#         3515
  C:39A5H         LINE#         3518
  C:39A8H         LINE#         3519
  C:39AAH         LINE#         3520
  C:39ABH         LINE#         3521
  C:39ACH         LINE#         3522
  C:39AEH         LINE#         3523
  C:39AFH         LINE#         3527
  C:39B2H         LINE#         3528
  C:39B3H         LINE#         3529
  C:39B4H         LINE#         3530
  C:39B5H         LINE#         3531
  C:39B7H         LINE#         3532
  C:39B8H         LINE#         3533
  C:39B9H         LINE#         3534
  C:39BAH         LINE#         3537
  C:39BDH         LINE#         3538
  C:39BEH         LINE#         3539
  C:39BFH         LINE#         3540
  C:39C0H         LINE#         3541
  C:39C2H         LINE#         3542
  C:39C3H         LINE#         3543
  C:39C4H         LINE#         3544
  C:39C5H         LINE#         3547
  C:39C8H         LINE#         3548
  C:39C9H         LINE#         3549
  C:39CAH         LINE#         3550
  C:39CBH         LINE#         3551
  C:39CDH         LINE#         3552
  C:39CEH         LINE#         3553
  C:39CFH         LINE#         3554
  C:39D0H         LINE#         3560
  C:39D2H         LINE#         3563
  C:39D4H         LINE#         3567
  C:36F0H         LINE#         3580
  C:36F3H         LINE#         3581
  C:36F5H         LINE#         3582
  C:36F6H         LINE#         3585
  C:36F7H         LINE#         3587
BL51 BANKED LINKER/LOCATER V6.22                                                      11/08/2018  15:11:09  PAGE 49


  C:36F8H         LINE#         3589
  C:36F9H         LINE#         3591
  C:36FAH         LINE#         3593
  C:36FBH         LINE#         3595
  C:36FCH         LINE#         3597
  C:36FDH         LINE#         3599
  C:36FEH         LINE#         3601
  C:36FFH         LINE#         3603
  C:3700H         LINE#         3605
  C:3701H         LINE#         3607
  C:3702H         LINE#         3609
  C:3703H         LINE#         3611
  C:3704H         LINE#         3613
  C:3705H         LINE#         3615
  C:3706H         LINE#         3617
  C:3707H         LINE#         3619
  C:3708H         LINE#         3621
  C:3709H         LINE#         3623
  C:370AH         LINE#         3625
  C:370BH         LINE#         3627
  C:370CH         LINE#         3629
  C:370DH         LINE#         3631
  C:370EH         LINE#         3633
  C:370FH         LINE#         3635
  C:3710H         LINE#         3637
  C:3711H         LINE#         3639
  C:3712H         LINE#         3641
  C:3713H         LINE#         3643
  C:3714H         LINE#         3645
  C:3715H         LINE#         3647
  C:3716H         LINE#         3649
  C:3717H         LINE#         3654
  C:371AH         LINE#         3655
  C:371CH         LINE#         3656
  C:371DH         LINE#         3659
  C:3720H         LINE#         3660
  C:3721H         LINE#         3661
  C:3722H         LINE#         3665
  C:3723H         LINE#         3667
  C:3724H         LINE#         3669
  C:3725H         LINE#         3671
  C:3726H         LINE#         3673
  C:3727H         LINE#         3675
  C:3728H         LINE#         3677
  C:3729H         LINE#         3679
  C:372AH         LINE#         3681
  C:372BH         LINE#         3683
  C:372CH         LINE#         3685
  C:372DH         LINE#         3687
  C:372EH         LINE#         3689
  C:372FH         LINE#         3691
  C:3730H         LINE#         3693
  C:3731H         LINE#         3695
  C:3732H         LINE#         3697
  C:3733H         LINE#         3699
  C:3734H         LINE#         3701
  C:3735H         LINE#         3703
BL51 BANKED LINKER/LOCATER V6.22                                                      11/08/2018  15:11:09  PAGE 50


  C:3736H         LINE#         3705
  C:3737H         LINE#         3707
  C:3738H         LINE#         3709
  C:3739H         LINE#         3711
  C:373AH         LINE#         3713
  C:373BH         LINE#         3715
  C:373CH         LINE#         3717
  C:373DH         LINE#         3719
  C:373EH         LINE#         3721
  C:373FH         LINE#         3723
  C:3740H         LINE#         3725
  C:3741H         LINE#         3727
  C:3742H         LINE#         3732
  C:3AD0H         LINE#         3752
  C:3AD3H         LINE#         3755
  C:3AD6H         LINE#         3760
  C:3AD9H         LINE#         3763
  C:3ADCH         LINE#         3767
  C:3B0CH         LINE#         3780
  C:3B0FH         LINE#         3784
  C:3B12H         LINE#         3787
  C:3B15H         LINE#         3791
  C:38ADH         LINE#         3806
  C:38B0H         LINE#         3807
  C:38B1H         LINE#         3808
  C:38B2H         LINE#         3809
  C:38B3H         LINE#         3810
  C:38B5H         LINE#         3811
  C:38B6H         LINE#         3812
  C:38B7H         LINE#         3813
  C:38B8H         LINE#         3816
  C:38BBH         LINE#         3817
  C:38BCH         LINE#         3818
  C:38BDH         LINE#         3819
  C:38BEH         LINE#         3820
  C:38C0H         LINE#         3821
  C:38C1H         LINE#         3822
  C:38C2H         LINE#         3823
  C:38C3H         LINE#         3826
  C:38C6H         LINE#         3827
  C:38C7H         LINE#         3828
  C:38C8H         LINE#         3829
  C:38C9H         LINE#         3830
  C:38CBH         LINE#         3831
  C:38CCH         LINE#         3832
  C:38CDH         LINE#         3833
  C:38CEH         LINE#         3836
  C:38D1H         LINE#         3837
  C:38D2H         LINE#         3838
  C:38D3H         LINE#         3839
  C:38D4H         LINE#         3840
  C:38D6H         LINE#         3841
  C:38D7H         LINE#         3842
  C:38D8H         LINE#         3843
  C:38D9H         LINE#         3846
  C:38DCH         LINE#         3847
  C:38DDH         LINE#         3848
BL51 BANKED LINKER/LOCATER V6.22                                                      11/08/2018  15:11:09  PAGE 51


  C:38DEH         LINE#         3849
  C:38DFH         LINE#         3850
  C:38E1H         LINE#         3851
  C:38E2H         LINE#         3852
  C:38E3H         LINE#         3853
  C:38E4H         LINE#         3856
  C:38E7H         LINE#         3857
  C:38E8H         LINE#         3858
  C:38E9H         LINE#         3859
  C:38EAH         LINE#         3860
  C:38ECH         LINE#         3861
  C:38EDH         LINE#         3862
  C:38EEH         LINE#         3863
  C:38EFH         LINE#         3867
  -------         ENDMOD        INITIAL

  -------         MODULE        INTERRUPT
  C:0000H         SYMBOL        _ICE_DUMMY_
  D:00CEH         PUBLIC        P2ETCLR
  C:311FH         PUBLIC        Comp234Interrupt
  D:00DEH         PUBLIC        P3ETCLR
  D:0080H         PUBLIC        P0
  D:00F6H         PUBLIC        P4ETCLR
  D:0090H         PUBLIC        P1
  D:00A0H         PUBLIC        P2
  D:00B0H         PUBLIC        P3
  C:3A2FH         PUBLIC        TIMER0Interrupt
  C:2006H         PUBLIC        TIMER1Interrupt
  C:2D18H         PUBLIC        TIMER3Interrupt
  C:350DH         PUBLIC        TIMER4Interrupt
  C:33B2H         PUBLIC        TIMER5Interrupt
  D:00A8H         PUBLIC        IEN0
  C:308CH         PUBLIC        TIMER6Interrupt
  D:00B8H         PUBLIC        IEN1
  C:2FF8H         PUBLIC        EXT1234Interrupt
  B:00C0H.0       PUBLIC        IADC
  C:3241H         PUBLIC        I2CInterrupt
  C:38F0H         PUBLIC        Comp1Interrupt
  B:00C0H.1       PUBLIC        IEX2
  B:00C0H.2       PUBLIC        IEX3
  B:00C0H.3       PUBLIC        IEX4
  B:00C0H.4       PUBLIC        IEX5
  C:3931H         PUBLIC        ADCInterrupt
  B:00C0H.5       PUBLIC        IEX6
  C:3695H         PUBLIC        LDV33Interrupt
  C:363AH         PUBLIC        LDV18Interrupt
  C:3337H         PUBLIC        eFlashInterrupt
  B:0080H.4       PUBLIC        P04
  D:0088H         PUBLIC        TCON
  B:00A0H.6       PUBLIC        P26
  C:35DFH         PUBLIC        RTCInterrupt
  B:0088H.1       PUBLIC        IE0
  B:0088H.3       PUBLIC        IE1
  C:32BCH         PUBLIC        SPIInterrupt
  C:3AF7H         PUBLIC        UART1Interrupt
  C:206EH         PUBLIC        UART2Interrupt
  C:349BH         PUBLIC        ePWM123Interrupt
BL51 BANKED LINKER/LOCATER V6.22                                                      11/08/2018  15:11:09  PAGE 52


  D:0093H         PUBLIC        BPCTRL
  B:0088H.5       PUBLIC        TF0
  B:0098H.0       PUBLIC        RI0
  B:0088H.7       PUBLIC        TF1
  B:0098H.1       PUBLIC        TI0
  D:00F9H         PUBLIC        INT_REG1
  D:00FAH         PUBLIC        INT_REG2
  D:00FDH         PUBLIC        INT_REG3
  D:00FEH         PUBLIC        INT_REG4
  C:357DH         PUBLIC        ePWM4Interrupt
  D:0098H         PUBLIC        S0CON
  D:009BH         PUBLIC        S1CON
  D:00C8H         PUBLIC        T2CON
  D:00B5H         PUBLIC        P1ETFLG
  D:00CDH         PUBLIC        P2ETFLG
  D:00DDH         PUBLIC        P3ETFLG
  D:00F5H         PUBLIC        P4ETFLG
  D:00D8H         PUBLIC        WDCON
  D:00C0H         PUBLIC        IRCON
  D:00B6H         PUBLIC        P1ETCLR
  -------         PROC          EXT1234INTERRUPT
  C:2FF8H         LINE#         37
  C:3001H         LINE#         40
  C:3010H         LINE#         41
  C:3010H         LINE#         43
  C:3013H         LINE#         44
  C:3013H         LINE#         47
  C:3022H         LINE#         48
  C:3022H         LINE#         49
  C:3024H         LINE#         50
  C:3027H         LINE#         51
  C:3027H         LINE#         54
  C:3036H         LINE#         55
  C:3036H         LINE#         56
  C:3039H         LINE#         57
  C:3039H         LINE#         60
  C:3048H         LINE#         61
  C:3048H         LINE#         63
  C:304BH         LINE#         64
  C:304BH         LINE#         66
  C:3083H         LINE#         67
  C:3085H         LINE#         69
  -------         ENDPROC       EXT1234INTERRUPT
  -------         PROC          TIMER0INTERRUPT
  C:3A2FH         LINE#         80
  C:3A3CH         LINE#         83
  C:3A3EH         LINE#         84
  C:3A40H         LINE#         87
  C:3A4BH         LINE#         91
  -------         ENDPROC       TIMER0INTERRUPT
  -------         PROC          TIMER1INTERRUPT
  C:2006H         LINE#         93
  C:2006H         LINE#         97
  C:2008H         LINE#         98
  -------         ENDPROC       TIMER1INTERRUPT
  -------         PROC          TIMER3INTERRUPT
  C:2D18H         LINE#         100
BL51 BANKED LINKER/LOCATER V6.22                                                      11/08/2018  15:11:09  PAGE 53


  C:2D2DH         LINE#         104
  C:2D3EH         LINE#         105
  C:2D3EH         LINE#         106
  C:2D40H         LINE#         108
  C:2D4BH         LINE#         109
  C:2D4BH         LINE#         111
  C:2D5EH         LINE#         112
  C:2D5EH         LINE#         114
  C:2D71H         LINE#         115
  C:2D7AH         LINE#         116
  C:2D7AH         LINE#         118
  C:2D85H         LINE#         119
  C:2D95H         LINE#         120
  C:2D98H         LINE#         122
  C:2D9AH         LINE#         124
  C:2D9AH         LINE#         127
  C:2D9EH         LINE#         129
  C:2D9EH         LINE#         131
  C:2DB7H         LINE#         133
  C:2DB9H         LINE#         135
  C:2DB9H         LINE#         136
  C:2DCCH         LINE#         138
  C:2DF5H         LINE#         142
  C:2DF5H         LINE#         144
  C:2E00H         LINE#         147
  C:2E00H         LINE#         148
  C:2E0BH         LINE#         149
  C:2E0BH         LINE#         151
  C:2E3AH         LINE#         153
  C:2E3CH         LINE#         154
  -------         ENDPROC       TIMER3INTERRUPT
  -------         PROC          TIMER4INTERRUPT
  C:350DH         LINE#         156
  C:351AH         LINE#         161
  C:3525H         LINE#         163
  C:3528H         LINE#         166
  C:352AH         LINE#         168
  C:3570H         LINE#         169
  C:3572H         LINE#         173
  -------         ENDPROC       TIMER4INTERRUPT
  -------         PROC          TIMER5INTERRUPT
  C:33B2H         LINE#         175
  C:33C1H         LINE#         178
  C:33CCH         LINE#         179
  C:33D7H         LINE#         182
  C:33D9H         LINE#         183
  C:341AH         LINE#         184
  C:341CH         LINE#         187
  -------         ENDPROC       TIMER5INTERRUPT
  -------         PROC          TIMER6INTERRUPT
  C:308CH         LINE#         188
  C:309BH         LINE#         191
  C:30A6H         LINE#         192
  C:30B1H         LINE#         194
  C:310EH         LINE#         195
  C:3110H         LINE#         196
  C:3112H         LINE#         198
BL51 BANKED LINKER/LOCATER V6.22                                                      11/08/2018  15:11:09  PAGE 54


  -------         ENDPROC       TIMER6INTERRUPT
  -------         PROC          EPWM123INTERRUPT
  C:349BH         LINE#         205
  C:34A4H         LINE#         207
  C:34B3H         LINE#         208
  C:34B3H         LINE#         212
  C:34B6H         LINE#         213
  C:34B6H         LINE#         216
  C:34C5H         LINE#         217
  C:34C5H         LINE#         223
  C:34C8H         LINE#         224
  C:34C8H         LINE#         227
  C:34D7H         LINE#         228
  C:34D7H         LINE#         230
  C:34DAH         LINE#         231
  C:34DAH         LINE#         233
  C:3504H         LINE#         234
  C:3506H         LINE#         236
  -------         ENDPROC       EPWM123INTERRUPT
  -------         PROC          EPWM4INTERRUPT
  C:357DH         LINE#         239
  C:358CH         LINE#         242
  C:358FH         LINE#         244
  C:35D0H         LINE#         245
  C:35D2H         LINE#         247
  -------         ENDPROC       EPWM4INTERRUPT
  -------         PROC          COMP1INTERRUPT
  C:38F0H         LINE#         255
  C:38FDH         LINE#         261
  C:3908H         LINE#         263
  C:3924H         LINE#         264
  C:3926H         LINE#         265
  -------         ENDPROC       COMP1INTERRUPT
  -------         PROC          COMP234INTERRUPT
  C:311FH         LINE#         268
  C:312CH         LINE#         273
  C:3139H         LINE#         275
  C:3139H         LINE#         279
  C:3144H         LINE#         285
  C:3144H         LINE#         287
  C:3153H         LINE#         289
  C:3153H         LINE#         291
  C:315EH         LINE#         293
  C:315EH         LINE#         295
  C:316EH         LINE#         297
  C:316EH         LINE#         299
  C:3179H         LINE#         302
  C:3179H         LINE#         304
  C:31A5H         LINE#         305
  C:31A7H         LINE#         307
  -------         ENDPROC       COMP234INTERRUPT
  -------         PROC          I2CINTERRUPT
  C:3241H         LINE#         313
  C:3250H         LINE#         318
  C:32ADH         LINE#         319
  C:32AFH         LINE#         320
  -------         ENDPROC       I2CINTERRUPT
BL51 BANKED LINKER/LOCATER V6.22                                                      11/08/2018  15:11:09  PAGE 55


  -------         PROC          SPIINTERRUPT
  C:32BCH         LINE#         322
  C:32CBH         LINE#         326
  C:3328H         LINE#         327
  C:332AH         LINE#         328
  -------         ENDPROC       SPIINTERRUPT
  -------         PROC          EFLASHINTERRUPT
  C:3337H         LINE#         330
  C:3346H         LINE#         334
  C:33A3H         LINE#         335
  C:33A5H         LINE#         336
  -------         ENDPROC       EFLASHINTERRUPT
  -------         PROC          RTCINTERRUPT
  C:35DFH         LINE#         341
  C:35E8H         LINE#         346
  C:35EBH         LINE#         347
  C:3631H         LINE#         348
  C:3633H         LINE#         351
  -------         ENDPROC       RTCINTERRUPT
  -------         PROC          LDV18INTERRUPT
  C:363AH         LINE#         354
  C:3643H         LINE#         357
  C:3646H         LINE#         358
  C:368CH         LINE#         359
  C:368EH         LINE#         362
  -------         ENDPROC       LDV18INTERRUPT
  -------         PROC          LDV33INTERRUPT
  C:3695H         LINE#         364
  C:369EH         LINE#         367
  C:36A1H         LINE#         369
  C:36E7H         LINE#         370
  C:36E9H         LINE#         372
  -------         ENDPROC       LDV33INTERRUPT
  -------         PROC          UART1INTERRUPT
  C:3AF7H         LINE#         381
  C:3AF7H         LINE#         382
  C:3AF7H         LINE#         383
  C:3AFAH         LINE#         384
  C:3AFAH         LINE#         385
  C:3AFCH         LINE#         386
  C:3AFCH         LINE#         388
  C:3AFFH         LINE#         389
  C:3AFFH         LINE#         390
  C:3B01H         LINE#         391
  C:3B01H         LINE#         392
  -------         ENDPROC       UART1INTERRUPT
  -------         PROC          UART2INTERRUPT
  C:206EH         LINE#         394
  C:2070H         LINE#         397
  C:2075H         LINE#         398
  C:2075H         LINE#         399
  C:2078H         LINE#         404
  C:2078H         LINE#         407
  C:207DH         LINE#         408
  C:207DH         LINE#         409
  C:2080H         LINE#         410
  C:2080H         LINE#         411
BL51 BANKED LINKER/LOCATER V6.22                                                      11/08/2018  15:11:09  PAGE 56


  -------         ENDPROC       UART2INTERRUPT
  -------         PROC          ADCINTERRUPT
  C:3931H         LINE#         413
  C:393EH         LINE#         417
  C:3947H         LINE#         418
  C:3947H         LINE#         419
  C:3952H         LINE#         420
  C:3954H         LINE#         421
  C:3954H         LINE#         423
  C:395EH         LINE#         426
  -------         ENDPROC       ADCINTERRUPT
  -------         ENDMOD        INTERRUPT

  -------         MODULE        MOTORLIB
  C:3743H         SEGMENT       ?PR?_EE_WRITE?MOTORLIB
  D:001AH         SEGMENT       ?DT?_EE_WRITE?MOTORLIB
  C:378FH         SEGMENT       ?PR?_EE_READ?MOTORLIB
  D:001FH         SEGMENT       ?DT?_EE_READ?MOTORLIB
  C:2026H         SEGMENT       ?PR?_SIN?MOTORLIB
  D:003FH         SEGMENT       ?DT?_SIN?MOTORLIB
  C:3A02H         SEGMENT       ?PR?_NORMALIZING_WRITE?MOTORLIB
  D:0012H         SEGMENT       ?DT?_NORMALIZING_WRITE?MOTORLIB
  C:3ADDH         SEGMENT       ?PR?NORMALIZING_READ?MOTORLIB
  D:0043H         SEGMENT       ?DT?NORMALIZING_READ?MOTORLIB
  C:208EH         SEGMENT       ?PR?NORMALIZING_TEST?MOTORLIB
  C:3AEAH         SEGMENT       ?C_INITSEG
  X:A000H         SEGMENT       ?XD?MOTORLIB
  D:0008H         SEGMENT       ?DT?MOTORLIB
  D:001AH         PUBLIC        ?_EE_WRITE?BYTE
  C:3ADDH         PUBLIC        NORMALIZING_READ
  C:208EH         PUBLIC        NORMALIZING_TEST
  D:0008H         PUBLIC        TDEBUGTABLE
  X:A000H         PUBLIC        _DIV_DENOMINATOR
  X:A003H         PUBLIC        _DIV_REMAINDER
  C:378FH         PUBLIC        _EE_READ
  C:3743H         PUBLIC        _EE_WRITE
  X:A002H         PUBLIC        _MD_ERROR
  C:3A02H         PUBLIC        _NORMALIZING_WRITE
  C:2026H         PUBLIC        _SIN
  C:3745H         SYMBOL        ?C0001
  C:3755H         SYMBOL        ?C0002
  C:377AH         SYMBOL        ?C0003
  C:3789H         SYMBOL        ?C0004
  C:378EH         SYMBOL        ?C0005
  C:3791H         SYMBOL        ?C0006
  C:37A1H         SYMBOL        ?C0007
  C:37B8H         SYMBOL        ?C0008
  C:37C6H         SYMBOL        ?C0009
  C:37D9H         SYMBOL        ?C0010
  C:2042H         SYMBOL        ?C0011
  C:3A29H         SYMBOL        ?C0012
  C:3A2EH         SYMBOL        ?C0013
  C:3A2EH         SYMBOL        ?C0014
  C:3AE9H         SYMBOL        ?C0015
  C:209CH         SYMBOL        ?C0016
  D:0043H         SYMBOL        ?NORMALIZING_READ?BYTE
  D:001FH         SYMBOL        ?_EE_READ?BYTE
BL51 BANKED LINKER/LOCATER V6.22                                                      11/08/2018  15:11:09  PAGE 57


  D:0012H         SYMBOL        ?_NORMALIZING_WRITE?BYTE
  D:003FH         SYMBOL        ?_SIN?BYTE
  D:00E0H         SYMBOL        ACC
  D:00EFH         SYMBOL        ARCON
  D:00F0H         SYMBOL        B
  D:0093H         SYMBOL        BPCTRL
  D:0095H         SYMBOL        BREAKH
  D:0094H         SYMBOL        BREAKL
  D:00ABH         SYMBOL        BSHCTL
  D:00ACH         SYMBOL        BSHI_0
  D:00ADH         SYMBOL        BSHI_1
  D:00AEH         SYMBOL        BSHI_2
  D:00AFH         SYMBOL        BSHI_3
  D:00BCH         SYMBOL        BSHO_0
  D:00BDH         SYMBOL        BSHO_1
  D:00BEH         SYMBOL        BSHO_2
  D:00BFH         SYMBOL        BSHO_3
  D:008EH         SYMBOL        CKCON
  D:0091H         SYMBOL        CLK_DIV
  D:008FH         SYMBOL        CLK_PD_CON
  D:003FH         SYMBOL        DAT?243
  D:0012H         SYMBOL        DATA?345
  D:0083H         SYMBOL        DPH
  D:0085H         SYMBOL        DPH1
  D:0082H         SYMBOL        DPL
  D:0084H         SYMBOL        DPL1
  D:0092H         SYMBOL        DPS
  B:00B8H.0       SYMBOL        EADC
  B:00A8H.7       SYMBOL        EAL
  D:001AH         SYMBOL        EE_ADDR?040
  D:001FH         SYMBOL        EE_ADDR?142
  D:001BH         SYMBOL        EE_DATA?041
  B:00A8H.4       SYMBOL        ES
  B:00A8H.4       SYMBOL        ES0
  B:00A8H.1       SYMBOL        ET0
  B:00A8H.3       SYMBOL        ET1
  B:00A8H.0       SYMBOL        EX0
  B:00A8H.2       SYMBOL        EX1
  B:00B8H.1       SYMBOL        EX2
  B:00B8H.2       SYMBOL        EX3
  B:00B8H.3       SYMBOL        EX4
  B:00B8H.4       SYMBOL        EX5
  B:00B8H.5       SYMBOL        EX6
  B:00C8H.5       SYMBOL        I2FR
  B:00C8H.6       SYMBOL        I3FR
  B:00C0H.0       SYMBOL        IADC
  D:00A8H         SYMBOL        IE
  B:0088H.1       SYMBOL        IE0
  B:0088H.3       SYMBOL        IE1
  D:00A8H         SYMBOL        IEN0
  D:00B8H         SYMBOL        IEN1
  D:009AH         SYMBOL        IEN2
  B:00C0H.1       SYMBOL        IEX2
  B:00C0H.2       SYMBOL        IEX3
  B:00C0H.3       SYMBOL        IEX4
  B:00C0H.4       SYMBOL        IEX5
  B:00C0H.5       SYMBOL        IEX6
BL51 BANKED LINKER/LOCATER V6.22                                                      11/08/2018  15:11:09  PAGE 58


  D:00F9H         SYMBOL        INT_REG1
  D:00FAH         SYMBOL        INT_REG2
  D:00FDH         SYMBOL        INT_REG3
  D:00FEH         SYMBOL        INT_REG4
  D:00A9H         SYMBOL        IP0
  D:00B9H         SYMBOL        IP1
  D:00C0H         SYMBOL        IRCON
  B:0088H.0       SYMBOL        IT0
  B:0088H.2       SYMBOL        IT1
  D:0016H         SYMBOL        LD?346
  D:0043H         SYMBOL        LD?447
  D:00E9H         SYMBOL        MD0
  D:00EAH         SYMBOL        MD1
  D:00EBH         SYMBOL        MD2
  D:00ECH         SYMBOL        MD3
  D:00EDH         SYMBOL        MD4
  D:00EEH         SYMBOL        MD5
  D:00E8H         SYMBOL        MEM_CONFIG
  N:0000H         SYMBOL        MOTORLIB
  D:0080H         SYMBOL        P0
  B:0080H.0       SYMBOL        P00
  B:0080H.1       SYMBOL        P01
  B:0080H.2       SYMBOL        P02
  B:0080H.3       SYMBOL        P03
  B:0080H.4       SYMBOL        P04
  B:0080H.5       SYMBOL        P05
  B:0080H.6       SYMBOL        P06
  B:0080H.7       SYMBOL        P07
  D:0090H         SYMBOL        P1
  B:0090H.0       SYMBOL        P10
  B:0090H.1       SYMBOL        P11
  B:0090H.2       SYMBOL        P12
  B:0090H.3       SYMBOL        P13
  B:0090H.4       SYMBOL        P14
  B:0090H.5       SYMBOL        P15
  B:0090H.6       SYMBOL        P16
  B:0090H.7       SYMBOL        P17
  D:00B1H         SYMBOL        P1AQCSFRC
  D:00A7H         SYMBOL        P1AQSFRC
  D:00A3H         SYMBOL        P1CMPA
  D:00A4H         SYMBOL        P1CMPA_H
  D:00A3H         SYMBOL        P1CMPA_L
  D:00A5H         SYMBOL        P1CMPB
  D:00A6H         SYMBOL        P1CMPB_H
  D:00A5H         SYMBOL        P1CMPB_L
  D:00B6H         SYMBOL        P1ETCLR
  D:00B5H         SYMBOL        P1ETFLG
  D:00B7H         SYMBOL        P1ETFRC
  D:00A1H         SYMBOL        P1TBPRD
  D:00A2H         SYMBOL        P1TBPRD_H
  D:00A1H         SYMBOL        P1TBPRD_L
  D:00B3H         SYMBOL        P1TZCLR
  D:00B2H         SYMBOL        P1TZFLG
  D:00B4H         SYMBOL        P1TZFRC
  D:00A0H         SYMBOL        P2
  B:00A0H.0       SYMBOL        P20
  B:00A0H.1       SYMBOL        P21
BL51 BANKED LINKER/LOCATER V6.22                                                      11/08/2018  15:11:09  PAGE 59


  B:00A0H.2       SYMBOL        P22
  B:00A0H.3       SYMBOL        P23
  B:00A0H.4       SYMBOL        P24
  B:00A0H.5       SYMBOL        P25
  B:00A0H.6       SYMBOL        P26
  B:00A0H.7       SYMBOL        P27
  D:00C9H         SYMBOL        P2AQCSFRC
  D:00C7H         SYMBOL        P2AQSFRC
  D:00C3H         SYMBOL        P2CMPA
  D:00C4H         SYMBOL        P2CMPA_H
  D:00C3H         SYMBOL        P2CMPA_L
  D:00C5H         SYMBOL        P2CMPB
  D:00C6H         SYMBOL        P2CMPB_H
  D:00C5H         SYMBOL        P2CMPB_L
  D:00CEH         SYMBOL        P2ETCLR
  D:00CDH         SYMBOL        P2ETFLG
  D:00CFH         SYMBOL        P2ETFRC
  D:00C1H         SYMBOL        P2TBPRD
  D:00C2H         SYMBOL        P2TBPRD_H
  D:00C1H         SYMBOL        P2TBPRD_L
  D:00CBH         SYMBOL        P2TZCLR
  D:00CAH         SYMBOL        P2TZFLG
  D:00CCH         SYMBOL        P2TZFRC
  D:00B0H         SYMBOL        P3
  B:00B0H.0       SYMBOL        P30
  B:00B0H.1       SYMBOL        P31
  B:00B0H.2       SYMBOL        P32
  B:00B0H.3       SYMBOL        P33
  B:00B0H.4       SYMBOL        P34
  B:00B0H.5       SYMBOL        P35
  B:00B0H.6       SYMBOL        P36
  B:00B0H.7       SYMBOL        P37
  D:00D9H         SYMBOL        P3AQCSFRC
  D:00D7H         SYMBOL        P3AQSFRC
  D:00D3H         SYMBOL        P3CMPA
  D:00D4H         SYMBOL        P3CMPA_H
  D:00D3H         SYMBOL        P3CMPA_L
  D:00D5H         SYMBOL        P3CMPB
  D:00D6H         SYMBOL        P3CMPB_H
  D:00D5H         SYMBOL        P3CMPB_L
  D:00DEH         SYMBOL        P3ETCLR
  D:00DDH         SYMBOL        P3ETFLG
  D:00DFH         SYMBOL        P3ETFRC
  D:00D1H         SYMBOL        P3TBPRD
  D:00D2H         SYMBOL        P3TBPRD_H
  D:00D1H         SYMBOL        P3TBPRD_L
  D:00DBH         SYMBOL        P3TZCLR
  D:00DAH         SYMBOL        P3TZFLG
  D:00DCH         SYMBOL        P3TZFRC
  D:00F1H         SYMBOL        P4AQCSFRC
  D:00E7H         SYMBOL        P4AQSFRC
  D:00E3H         SYMBOL        P4CMPA
  D:00E4H         SYMBOL        P4CMPA_H
  D:00E3H         SYMBOL        P4CMPA_L
  D:00E5H         SYMBOL        P4CMPB
  D:00E6H         SYMBOL        P4CMPB_H
  D:00E5H         SYMBOL        P4CMPB_L
BL51 BANKED LINKER/LOCATER V6.22                                                      11/08/2018  15:11:09  PAGE 60


  D:00F6H         SYMBOL        P4ETCLR
  D:00F5H         SYMBOL        P4ETFLG
  D:00F7H         SYMBOL        P4ETFRC
  D:00E1H         SYMBOL        P4TBPRD
  D:00E2H         SYMBOL        P4TBPRD_H
  D:00E1H         SYMBOL        P4TBPRD_L
  D:00F3H         SYMBOL        P4TZCLR
  D:00F2H         SYMBOL        P4TZFLG
  D:00F4H         SYMBOL        P4TZFRC
  D:0087H         SYMBOL        PCON
  D:0097H         SYMBOL        POWER_CON
  D:00D0H         SYMBOL        PSW
  B:0098H.2       SYMBOL        RB80
  B:0098H.4       SYMBOL        REN0
  B:0098H.0       SYMBOL        RI
  B:0098H.0       SYMBOL        RI0
  D:0099H         SYMBOL        S0BUF
  D:0098H         SYMBOL        S0CON
  D:00BAH         SYMBOL        S0RELH
  D:00AAH         SYMBOL        S0RELL
  D:009CH         SYMBOL        S1BUF
  D:009BH         SYMBOL        S1CON
  D:00BBH         SYMBOL        S1RELH
  D:009DH         SYMBOL        S1RELL
  D:0099H         SYMBOL        SBUF
  B:0098H.7       SYMBOL        SM0
  B:0098H.6       SYMBOL        SM1
  B:0098H.5       SYMBOL        SM20
  D:0081H         SYMBOL        SP
  D:00F8H         SYMBOL        SRAM_CON
  B:00B8H.6       SYMBOL        SWDT
  D:00C8H         SYMBOL        T2CON
  B:0098H.3       SYMBOL        TB80
  D:0088H         SYMBOL        TCON
  B:0088H.5       SYMBOL        TF0
  B:0088H.7       SYMBOL        TF1
  D:008CH         SYMBOL        TH0
  D:008DH         SYMBOL        TH1
  B:0098H.1       SYMBOL        TI0
  D:008AH         SYMBOL        TL0
  D:008BH         SYMBOL        TL1
  D:0089H         SYMBOL        TMOD
  B:0088H.4       SYMBOL        TR0
  B:0088H.6       SYMBOL        TR1
  D:0041H         SYMBOL        VALUE?244
  D:00D8H         SYMBOL        WDCON
  B:00D8H.7       SYMBOL        WDCON_7
  B:00A8H.6       SYMBOL        WDT
  D:0086H         SYMBOL        WDTREL
  C:3743H         LINE#         354
  C:3745H         LINE#         361
  C:3748H         LINE#         362
  C:3749H         LINE#         363
  C:374AH         LINE#         364
  C:374BH         LINE#         365
  C:374CH         LINE#         366
  C:374DH         LINE#         367
BL51 BANKED LINKER/LOCATER V6.22                                                      11/08/2018  15:11:09  PAGE 61


  C:374EH         LINE#         368
  C:3750H         LINE#         369
  C:3751H         LINE#         370
  C:3752H         LINE#         371
  C:3755H         LINE#         375
  C:3758H         LINE#         376
  C:375AH         LINE#         377
  C:375BH         LINE#         380
  C:375EH         LINE#         381
  C:3760H         LINE#         382
  C:3761H         LINE#         385
  C:3764H         LINE#         386
  C:3765H         LINE#         387
  C:3766H         LINE#         390
  C:3768H         LINE#         391
  C:376AH         LINE#         392
  C:376CH         LINE#         393
  C:376EH         LINE#         394
  C:3771H         LINE#         395
  C:3774H         LINE#         399
  C:3777H         LINE#         400
  C:3779H         LINE#         401
  C:377AH         LINE#         406
  C:377DH         LINE#         407
  C:377EH         LINE#         408
  C:377FH         LINE#         409
  C:3780H         LINE#         410
  C:3781H         LINE#         411
  C:3782H         LINE#         412
  C:3784H         LINE#         413
  C:3785H         LINE#         414
  C:3786H         LINE#         415
  C:3789H         LINE#         419
  C:378CH         LINE#         420
  C:378DH         LINE#         421
  C:378EH         LINE#         426
  C:378FH         LINE#         448
  C:3791H         LINE#         455
  C:3794H         LINE#         456
  C:3795H         LINE#         457
  C:3796H         LINE#         458
  C:3797H         LINE#         459
  C:3798H         LINE#         460
  C:3799H         LINE#         461
  C:379AH         LINE#         462
  C:379CH         LINE#         463
  C:379DH         LINE#         464
  C:379EH         LINE#         465
  C:37A1H         LINE#         469
  C:37A4H         LINE#         470
  C:37A6H         LINE#         471
  C:37A7H         LINE#         474
  C:37AAH         LINE#         475
  C:37ACH         LINE#         476
  C:37ADH         LINE#         479
  C:37B0H         LINE#         480
  C:37B1H         LINE#         481
BL51 BANKED LINKER/LOCATER V6.22                                                      11/08/2018  15:11:09  PAGE 62


  C:37B2H         LINE#         484
  C:37B5H         LINE#         485
  C:37B7H         LINE#         486
  C:37B8H         LINE#         490
  C:37BBH         LINE#         491
  C:37BCH         LINE#         492
  C:37BDH         LINE#         493
  C:37BEH         LINE#         494
  C:37BFH         LINE#         495
  C:37C1H         LINE#         496
  C:37C2H         LINE#         497
  C:37C3H         LINE#         498
  C:37C6H         LINE#         502
  C:37C9H         LINE#         503
  C:37CAH         LINE#         504
  C:37CBH         LINE#         507
  C:37CEH         LINE#         508
  C:37CFH         LINE#         509
  C:37D0H         LINE#         510
  C:37D1H         LINE#         511
  C:37D2H         LINE#         512
  C:37D3H         LINE#         513
  C:37D4H         LINE#         514
  C:37D5H         LINE#         515
  C:37D6H         LINE#         516
  C:37D7H         LINE#         517
  C:37D8H         LINE#         518
  C:37D9H         LINE#         523
  C:2026H         LINE#         549
  C:2028H         LINE#         550
  C:202AH         LINE#         556
  C:202CH         LINE#         557
  C:202EH         LINE#         558
  C:202FH         LINE#         559
  C:2031H         LINE#         560
  C:2032H         LINE#         561
  C:2033H         LINE#         562
  C:2035H         LINE#         563
  C:2037H         LINE#         564
  C:2038H         LINE#         565
  C:203AH         LINE#         566
  C:203BH         LINE#         567
  C:203CH         LINE#         568
  C:203EH         LINE#         572
  C:2040H         LINE#         573
  C:2042H         LINE#         578
  C:3A02H         LINE#         652
  C:3A04H         LINE#         653
  C:3A06H         LINE#         654
  C:3A08H         LINE#         655
  C:3A0AH         LINE#         661
  C:3A0CH         LINE#         662
  C:3A0EH         LINE#         663
  C:3A10H         LINE#         664
  C:3A12H         LINE#         665
  C:3A14H         LINE#         666
  C:3A16H         LINE#         667
BL51 BANKED LINKER/LOCATER V6.22                                                      11/08/2018  15:11:09  PAGE 63


  C:3A18H         LINE#         668
  C:3A1AH         LINE#         671
  C:3A1DH         LINE#         674
  C:3A20H         LINE#         677
  C:3A23H         LINE#         680
  C:3A26H         LINE#         683
  C:3A29H         LINE#         687
  C:3A2BH         LINE#         688
  C:3A2EH         LINE#         695
  C:3ADDH         LINE#         709
  C:3AE0H         LINE#         712
  C:3AE3H         LINE#         715
  C:3AE6H         LINE#         718
  C:3AE9H         LINE#         722
  C:208EH         LINE#         737
  C:2090H         LINE#         738
  C:2092H         LINE#         739
  C:2094H         LINE#         740
  C:2096H         LINE#         741
  C:2099H         LINE#         745
  C:209CH         LINE#         749
  -------         ENDMOD        MOTORLIB

  -------         MODULE        ISD51_CONFIGURATION
  B:0020H.0       SEGMENT       ?BI?ISD51
  C:286AH         SEGMENT       ?PR?ISD51
  D:0047H         SEGMENT       ?DT?ISD51
  N:0000H         PUBLIC        ?ISD?CBLK_SIZE
  C:2963H         PUBLIC        ?ISD?CMDLOOP
  N:FFFFH         PUBLIC        ?ISD?CMP_E
  N:0000H         PUBLIC        ?ISD?CMP_S
  C:296EH         PUBLIC        ?ISD?GETBYTE
  N:E802H         PUBLIC        ?ISD?HWBREAKS
  C:2B00H         PUBLIC        ?ISD?PUTCHAR
  C:2B2AH         PUBLIC        ?ISD?PUTCHAR_END
  N:00FFH         PUBLIC        ?ISD?RAMTOP
  C:29D0H         PUBLIC        ?ISD?READSFR00
  C:29E0H         PUBLIC        ?ISD?READSFR01
  C:29F0H         PUBLIC        ?ISD?READSFR02
  C:2A00H         PUBLIC        ?ISD?READSFR03
  C:2A10H         PUBLIC        ?ISD?READSFR04
  C:2A20H         PUBLIC        ?ISD?READSFR05
  C:2A30H         PUBLIC        ?ISD?READSFR06
  C:2A40H         PUBLIC        ?ISD?READSFR07
  C:2A50H         PUBLIC        ?ISD?READSFR08
  C:2A60H         PUBLIC        ?ISD?READSFR09
  C:2A70H         PUBLIC        ?ISD?READSFR10
  C:2A80H         PUBLIC        ?ISD?READSFR11
  C:2A90H         PUBLIC        ?ISD?READSFR12
  C:2AA0H         PUBLIC        ?ISD?READSFR13
  C:2AB0H         PUBLIC        ?ISD?READSFR14
  C:2AC0H         PUBLIC        ?ISD?READSFR15
  C:2AD0H         PUBLIC        ?ISD?READSFR16
  C:2AE0H         PUBLIC        ?ISD?READSFR17
  C:2AF0H         PUBLIC        ?ISD?READSFR18
  C:29A0H         PUBLIC        ?ISD?RESTART
  C:2998H         PUBLIC        ?ISD?SENDBYTE
BL51 BANKED LINKER/LOCATER V6.22                                                      11/08/2018  15:11:09  PAGE 64


  C:2909H         PUBLIC        ?ISD?SETHWBREAK
  N:00CDH         PUBLIC        ?ISD?VERSION
  C:29BCH         PUBLIC        ?ISD?WRITESFR00
  C:29C2H         PUBLIC        ?ISD?WRITESFR01
  C:29C8H         PUBLIC        ?ISD?WRITESFR02
  C:29CCH         PUBLIC        ?ISD?WRITESFR03
  C:2B2BH         PUBLIC        _GETKEY
  D:0047H         PUBLIC        _ISD_CHAR
  C:2B4BH         PUBLIC        _ISKEY
  C:2B00H         PUBLIC        _PUTCHAR
  C:2B65H         PUBLIC        __ISD_INIT
  C:2961H         SYMBOL        ?ISD?CMDLOOP2
  D:00E0H         SYMBOL        ACC
  D:008EH         SYMBOL        AUXR
  D:00F0H         SYMBOL        B
  D:0093H         SYMBOL        BPCTRL
  D:0095H         SYMBOL        BREAKH
  D:0094H         SYMBOL        BREAKL
  N:2000H         SYMBOL        BREAK_CODE
  N:E800H         SYMBOL        BREAK_XDATA
  C:28ACH         SYMBOL        C1T3INTERRUPT
  C:293FH         SYMBOL        CALLBREAK
  N:0010H         SYMBOL        CBLK
  C:297DH         SYMBOL        CHECKBREAK
  C:2989H         SYMBOL        CHECKBREAK1
  C:2976H         SYMBOL        CHECKBREAKS
  C:286AH         SYMBOL        COMINTERRUPT
  D:0083H         SYMBOL        DPH
  D:0082H         SYMBOL        DPL
  B:00A8H.7       SYMBOL        EA
  C:288EH         SYMBOL        EFLASHINTERRUPT
  D:00C0H         SYMBOL        EICON
  C:28A5H         SYMBOL        EPWM4INTERRUPT
  B:00A8H.4       SYMBOL        ES
  C:2B47H         SYMBOL        GK_CLRRI
  C:28C3H         SYMBOL        HWBREAKENTRY
  C:28F3H         SYMBOL        HWBREAKPOINT
  C:2880H         SYMBOL        I2CINTERRUPT
  D:00A8H         SYMBOL        IE
  C:2B64H         SYMBOL        IK_END
  C:2B63H         SYMBOL        IK_ON
  D:00F9H         SYMBOL        INT_REG1
  D:00FAH         SYMBOL        INT_REG2
  D:00FDH         SYMBOL        INT_REG3
  D:00FEH         SYMBOL        INT_REG4
  N:0000H         SYMBOL        ISD51_CONFIGURATION
  C:28E5H         SYMBOL        LDV18INTERRUPT
  C:28ECH         SYMBOL        LDV33INTERRUPT
  D:0096H         SYMBOL        MEMCTRL
  C:293DH         SYMBOL        NOSERBREAK
  D:0080H         SYMBOL        P0
  D:0090H         SYMBOL        P1
  D:00A0H         SYMBOL        P2
  D:00B0H         SYMBOL        P3
  C:2895H         SYMBOL        P4T5INTERRUPT
  C:2B17H         SYMBOL        PC_CHAR
  C:2B28H         SYMBOL        PC_CHAR1
BL51 BANKED LINKER/LOCATER V6.22                                                      11/08/2018  15:11:09  PAGE 65


  C:2B2AH         SYMBOL        PC_END
  B:00C0H.5       SYMBOL        PFI
  D:00E6H         SYMBOL        PH_FMADRL
  D:00E4H         SYMBOL        PH_FMCON
  D:00B8H         SYMBOL        PIREG
  D:00D0H         SYMBOL        PSW
  C:29BAH         SYMBOL        RESTARTSS
  C:298EH         SYMBOL        RESTARTUSER
  C:2990H         SYMBOL        RETURNI
  B:0098H.0       SYMBOL        RI
  C:28DEH         SYMBOL        RTCINTERRUPT
  B:0020H.0       SYMBOL        SAVEEAI
  D:0099H         SYMBOL        SBUF
  D:0098H         SYMBOL        SCON
  C:2914H         SYMBOL        SELECTHWBP1
  C:294FH         SYMBOL        SEND7BYTES
  C:295AH         SYMBOL        SENDSTACKFRAME
  C:2922H         SYMBOL        SERIALINTERRUPT
  N:2023H         SYMBOL        SINTRVEC
  C:294DH         SYMBOL        SOFTBREAK
  D:0081H         SYMBOL        SP
  C:2887H         SYMBOL        SPIINTERRUPT
  C:28BCH         SYMBOL        T3INTERRUPT
  B:0098H.1       SYMBOL        TI
  D:0000H         SYMBOL        UARTFLAG
  C:2B3AH         SYMBOL        _GETKEY2
  C:2B55H         SYMBOL        _ISKEY2
  C:2023H         LINE#         126
  C:2013H         LINE#         163
  C:2053H         LINE#         167
  C:2063H         LINE#         170
  C:206BH         LINE#         174
  C:286AH         LINE#         184
  C:286CH         LINE#         185
  C:286EH         LINE#         186
  C:2870H         LINE#         187
  C:2873H         LINE#         188
  C:2876H         LINE#         189
  C:2879H         LINE#         190
  C:287BH         LINE#         191
  C:287DH         LINE#         192
  C:2880H         LINE#         195
  C:2882H         LINE#         196
  C:2884H         LINE#         197
  C:2887H         LINE#         202
  C:2889H         LINE#         203
  C:288BH         LINE#         204
  C:288EH         LINE#         209
  C:2890H         LINE#         210
  C:2892H         LINE#         211
  C:2895H         LINE#         219
  C:2897H         LINE#         220
  C:2899H         LINE#         221
  C:289BH         LINE#         222
  C:289EH         LINE#         224
  C:28A0H         LINE#         225
  C:28A2H         LINE#         227
BL51 BANKED LINKER/LOCATER V6.22                                                      11/08/2018  15:11:09  PAGE 66


  C:28A5H         LINE#         230
  C:28A7H         LINE#         231
  C:28A9H         LINE#         233
  C:28ACH         LINE#         240
  C:28AEH         LINE#         241
  C:28B0H         LINE#         242
  C:28B2H         LINE#         243
  C:28B5H         LINE#         244
  C:28B7H         LINE#         245
  C:28B9H         LINE#         246
  C:28BCH         LINE#         248
  C:28BEH         LINE#         249
  C:28C0H         LINE#         250
  C:28C3H         LINE#         261
  C:28C5H         LINE#         262
  C:28C7H         LINE#         263
  C:28C9H         LINE#         264
  C:28CCH         LINE#         265
  C:28CEH         LINE#         266
  C:28D1H         LINE#         267
  C:28D4H         LINE#         268
  C:28D7H         LINE#         269
  C:28D9H         LINE#         270
  C:28DBH         LINE#         271
  C:28DEH         LINE#         274
  C:28E0H         LINE#         275
  C:28E2H         LINE#         276
  C:28E5H         LINE#         279
  C:28E7H         LINE#         280
  C:28E9H         LINE#         281
  C:28ECH         LINE#         285
  C:28EEH         LINE#         286
  C:28F0H         LINE#         287
  C:28F3H         LINE#         292
  C:28F6H         LINE#         293
  C:28F8H         LINE#         294
  C:28FAH         LINE#         296
  C:28FCH         LINE#         297
  C:28FDH         LINE#         298
  C:28FFH         LINE#         299
  C:2900H         LINE#         301
  C:2903H         LINE#         303
  C:2905H         LINE#         304
  C:2907H         LINE#         305
  C:2909H         LINE#         318
  C:290AH         LINE#         319
  C:290BH         LINE#         320
  C:290EH         LINE#         321
  C:2911H         LINE#         322
  C:2914H         LINE#         323
  C:2915H         LINE#         324
  C:2918H         LINE#         325
  C:291AH         LINE#         326
  C:291CH         LINE#         327
  C:291EH         LINE#         328
  C:2920H         LINE#         329
  C:2922H         LINE#         346
BL51 BANKED LINKER/LOCATER V6.22                                                      11/08/2018  15:11:09  PAGE 67


  C:2924H         LINE#         347
  C:2926H         LINE#         348
  C:2929H         LINE#         349
  C:292BH         LINE#         349
  C:292DH         LINE#         351
  C:292FH         LINE#         353
  C:2932H         LINE#         355
  C:2934H         LINE#         356
  C:2937H         LINE#         357
  C:2939H         LINE#         358
  C:293BH         LINE#         359
  C:293DH         LINE#         361
  C:293FH         LINE#         362
  C:2942H         LINE#         363
  C:2944H         LINE#         364
  C:2946H         LINE#         365
  C:2948H         LINE#         367
  C:294AH         LINE#         368
  C:294DH         LINE#         387
  C:294FH         LINE#         389
  C:2952H         LINE#         389
  C:2954H         LINE#         389
  C:2956H         LINE#         390
  C:2958H         LINE#         391
  C:295AH         LINE#         392
  C:295CH         LINE#         393
  C:295EH         LINE#         394
  C:2960H         LINE#         395
  C:2961H         LINE#         396
  C:2963H         LINE#         401
  C:2965H         LINE#         402
  C:2967H         LINE#         403
  C:2969H         LINE#         404
  C:296BH         LINE#         405
  C:296DH         LINE#         406
  C:296EH         LINE#         410
  C:2971H         LINE#         410
  C:2973H         LINE#         410
  C:2975H         LINE#         411
  C:2976H         LINE#         415
  C:2978H         LINE#         416
  C:297AH         LINE#         417
  C:297BH         LINE#         418
  C:297DH         LINE#         419
  C:297EH         LINE#         420
  C:297FH         LINE#         421
  C:2980H         LINE#         422
  C:2981H         LINE#         423
  C:2982H         LINE#         424
  C:2983H         LINE#         425
  C:2985H         LINE#         426
  C:2986H         LINE#         427
  C:2987H         LINE#         428
  C:2989H         LINE#         429
  C:298CH         LINE#         431
  C:298EH         LINE#         432
  C:2990H         LINE#         435
BL51 BANKED LINKER/LOCATER V6.22                                                      11/08/2018  15:11:09  PAGE 68


  C:2992H         LINE#         436
  C:2994H         LINE#         438
  C:2997H         LINE#         440
  C:2998H         LINE#         444
  C:299BH         LINE#         444
  C:299DH         LINE#         444
  C:299FH         LINE#         445
  C:29A0H         LINE#         452
  C:29A2H         LINE#         453
  C:29A4H         LINE#         454
  C:29A6H         LINE#         455
  C:29A8H         LINE#         456
  C:29AAH         LINE#         457
  C:29ACH         LINE#         458
  C:29ADH         LINE#         459
  C:29AFH         LINE#         460
  C:29B1H         LINE#         461
  C:29B3H         LINE#         462
  C:29B5H         LINE#         463
  C:29B6H         LINE#         510
  C:29B8H         LINE#         515
  C:29BAH         LINE#         516
  C:29BCH         LINE#         548
  C:29BEH         LINE#         549
  C:29C0H         LINE#         550
  C:29C2H         LINE#         557
  C:29C4H         LINE#         558
  C:29C6H         LINE#         559
  C:29C8H         LINE#         566
  C:29CAH         LINE#         567
  C:29CCH         LINE#         574
  C:29CEH         LINE#         575
  C:29D0H         LINE#         599
  C:29D2H         LINE#         600
  C:29D4H         LINE#         601
  C:29D6H         LINE#         602
  C:29D8H         LINE#         603
  C:29DAH         LINE#         604
  C:29DCH         LINE#         605
  C:29DEH         LINE#         606
  C:29E0H         LINE#         614
  C:29E2H         LINE#         615
  C:29E4H         LINE#         616
  C:29E6H         LINE#         617
  C:29E8H         LINE#         618
  C:29EAH         LINE#         619
  C:29ECH         LINE#         620
  C:29EEH         LINE#         621
  C:29F0H         LINE#         629
  C:29F2H         LINE#         630
  C:29F4H         LINE#         631
  C:29F6H         LINE#         632
  C:29F8H         LINE#         633
  C:29FAH         LINE#         634
  C:29FCH         LINE#         635
  C:29FEH         LINE#         636
  C:2A00H         LINE#         644
BL51 BANKED LINKER/LOCATER V6.22                                                      11/08/2018  15:11:09  PAGE 69


  C:2A02H         LINE#         645
  C:2A04H         LINE#         646
  C:2A06H         LINE#         647
  C:2A08H         LINE#         648
  C:2A0AH         LINE#         649
  C:2A0CH         LINE#         650
  C:2A0EH         LINE#         651
  C:2A10H         LINE#         659
  C:2A12H         LINE#         660
  C:2A14H         LINE#         661
  C:2A16H         LINE#         662
  C:2A18H         LINE#         663
  C:2A1AH         LINE#         664
  C:2A1CH         LINE#         665
  C:2A1EH         LINE#         666
  C:2A20H         LINE#         673
  C:2A22H         LINE#         674
  C:2A24H         LINE#         675
  C:2A26H         LINE#         676
  C:2A28H         LINE#         677
  C:2A2AH         LINE#         678
  C:2A2CH         LINE#         679
  C:2A2EH         LINE#         680
  C:2A30H         LINE#         687
  C:2A32H         LINE#         688
  C:2A34H         LINE#         689
  C:2A36H         LINE#         690
  C:2A38H         LINE#         691
  C:2A3AH         LINE#         692
  C:2A3CH         LINE#         693
  C:2A3EH         LINE#         694
  C:2A40H         LINE#         701
  C:2A42H         LINE#         702
  C:2A44H         LINE#         703
  C:2A46H         LINE#         704
  C:2A48H         LINE#         705
  C:2A4AH         LINE#         706
  C:2A4CH         LINE#         707
  C:2A4EH         LINE#         708
  C:2A50H         LINE#         715
  C:2A52H         LINE#         716
  C:2A54H         LINE#         717
  C:2A56H         LINE#         718
  C:2A58H         LINE#         719
  C:2A5AH         LINE#         720
  C:2A5CH         LINE#         721
  C:2A5EH         LINE#         722
  C:2A60H         LINE#         729
  C:2A62H         LINE#         730
  C:2A64H         LINE#         731
  C:2A66H         LINE#         732
  C:2A68H         LINE#         733
  C:2A6AH         LINE#         734
  C:2A6CH         LINE#         735
  C:2A6EH         LINE#         736
  C:2A70H         LINE#         743
  C:2A72H         LINE#         744
BL51 BANKED LINKER/LOCATER V6.22                                                      11/08/2018  15:11:09  PAGE 70


  C:2A74H         LINE#         745
  C:2A76H         LINE#         746
  C:2A78H         LINE#         747
  C:2A7AH         LINE#         748
  C:2A7CH         LINE#         749
  C:2A7EH         LINE#         750
  C:2A80H         LINE#         757
  C:2A82H         LINE#         758
  C:2A84H         LINE#         759
  C:2A86H         LINE#         760
  C:2A88H         LINE#         761
  C:2A8AH         LINE#         762
  C:2A8CH         LINE#         763
  C:2A8EH         LINE#         764
  C:2A90H         LINE#         771
  C:2A92H         LINE#         772
  C:2A94H         LINE#         773
  C:2A96H         LINE#         774
  C:2A98H         LINE#         775
  C:2A9AH         LINE#         776
  C:2A9CH         LINE#         777
  C:2A9EH         LINE#         778
  C:2AA0H         LINE#         785
  C:2AA2H         LINE#         786
  C:2AA4H         LINE#         787
  C:2AA6H         LINE#         788
  C:2AA8H         LINE#         789
  C:2AAAH         LINE#         790
  C:2AACH         LINE#         791
  C:2AAEH         LINE#         792
  C:2AB0H         LINE#         799
  C:2AB2H         LINE#         800
  C:2AB4H         LINE#         801
  C:2AB6H         LINE#         802
  C:2AB8H         LINE#         803
  C:2ABAH         LINE#         804
  C:2ABCH         LINE#         805
  C:2ABEH         LINE#         806
  C:2AC0H         LINE#         813
  C:2AC2H         LINE#         814
  C:2AC4H         LINE#         815
  C:2AC6H         LINE#         816
  C:2AC8H         LINE#         817
  C:2ACAH         LINE#         818
  C:2ACCH         LINE#         819
  C:2ACEH         LINE#         820
  C:2AD0H         LINE#         827
  C:2AD2H         LINE#         828
  C:2AD4H         LINE#         829
  C:2AD6H         LINE#         830
  C:2AD8H         LINE#         831
  C:2ADAH         LINE#         832
  C:2ADCH         LINE#         833
  C:2ADEH         LINE#         834
  C:2AE0H         LINE#         841
  C:2AE2H         LINE#         842
  C:2AE4H         LINE#         843
BL51 BANKED LINKER/LOCATER V6.22                                                      11/08/2018  15:11:09  PAGE 71


  C:2AE6H         LINE#         844
  C:2AE8H         LINE#         845
  C:2AEAH         LINE#         846
  C:2AECH         LINE#         847
  C:2AEEH         LINE#         848
  C:2AF0H         LINE#         855
  C:2AF2H         LINE#         856
  C:2AF4H         LINE#         857
  C:2AF6H         LINE#         858
  C:2AF8H         LINE#         859
  C:2AFAH         LINE#         860
  C:2AFCH         LINE#         861
  C:2AFEH         LINE#         862
  C:2B00H         LINE#         871
  C:2B03H         LINE#         872
  C:2B05H         LINE#         873
  C:2B06H         LINE#         874
  C:2B08H         LINE#         875
  C:2B0AH         LINE#         876
  C:2B0CH         LINE#         877
  C:2B0EH         LINE#         878
  C:2B10H         LINE#         879
  C:2B12H         LINE#         880
  C:2B14H         LINE#         881
  C:2B17H         LINE#         882
  C:2B18H         LINE#         883
  C:2B1AH         LINE#         884
  C:2B1CH         LINE#         885
  C:2B1FH         LINE#         886
  C:2B21H         LINE#         887
  C:2B23H         LINE#         888
  C:2B24H         LINE#         890
  C:2B26H         LINE#         894
  C:2B28H         LINE#         896
  C:2B2AH         LINE#         898
  C:2B2BH         LINE#         908
  C:2B2EH         LINE#         909
  C:2B30H         LINE#         910
  C:2B32H         LINE#         911
  C:2B34H         LINE#         912
  C:2B36H         LINE#         913
  C:2B38H         LINE#         914
  C:2B39H         LINE#         915
  C:2B3AH         LINE#         917
  C:2B3DH         LINE#         918
  C:2B3FH         LINE#         919
  C:2B42H         LINE#         920
  C:2B45H         LINE#         921
  C:2B47H         LINE#         923
  C:2B48H         LINE#         924
  C:2B4AH         LINE#         925
  C:2B4BH         LINE#         929
  C:2B4EH         LINE#         930
  C:2B50H         LINE#         931
  C:2B53H         LINE#         932
  C:2B54H         LINE#         933
  C:2B55H         LINE#         935
BL51 BANKED LINKER/LOCATER V6.22                                                      11/08/2018  15:11:09  PAGE 72


  C:2B56H         LINE#         936
  C:2B59H         LINE#         937
  C:2B5BH         LINE#         938
  C:2B5EH         LINE#         939
  C:2B61H         LINE#         940
  C:2B63H         LINE#         941
  C:2B64H         LINE#         942
  C:2B65H         LINE#         958
  C:2B67H         LINE#         959
  C:2B69H         LINE#         961
  C:2B6CH         LINE#         963
  C:2B6EH         LINE#         964
  C:2B6FH         LINE#         965
  -------         ENDMOD        ISD51_CONFIGURATION

  -------         MODULE        ?C?LSHL
  C:37DAH         PUBLIC        ?C?LSHL
  -------         ENDMOD        ?C?LSHL

  -------         MODULE        ?C?LSTXDATA
  C:37EDH         PUBLIC        ?C?LSTXDATA
  -------         ENDMOD        ?C?LSTXDATA

  -------         MODULE        ?C?ULSHRR515
  C:37F9H         PUBLIC        ?C?ULSHRR515
  -------         ENDMOD        ?C?ULSHRR515

  -------         MODULE        ISD_CORE_FUNCTIONS
  N:0064H         PUBLIC        ?ISD?CORE
  C:2B88H         PUBLIC        ?ISD?READCMEM
  C:2B95H         PUBLIC        ?ISD?READIMEM
  C:2B78H         PUBLIC        ?ISD?READXMEM
  C:2BA6H         PUBLIC        ?ISD?WRITEIMEM
  C:2B9EH         PUBLIC        ?ISD?WRITEXMEM
  -------         ENDMOD        ISD_CORE_FUNCTIONS



FUNCTION REGISTER MASKS


FUNCTION . . . . . . . REG MASK
-------------------------------

ADCINTERRUPT . . . . . @0xe301
COMP1INTERRUPT . . . . @0xe301
COMP234INTERRUPT . . . @0xf301
EFLASHINTERRUPT. . . . @0xf303
EPWM123INTERRUPT . . . @0xf001
EPWM4INTERRUPT . . . . @0xf303
EXT1234INTERRUPT . . . @0xf001
I2CINTERRUPT . . . . . @0xf303
LDV18INTERRUPT . . . . @0xe001
LDV33INTERRUPT . . . . @0xe001
RTCINTERRUPT . . . . . @0xe001
SPIINTERRUPT . . . . . @0xf303
TIMER0INTERRUPT. . . . @0xe301
BL51 BANKED LINKER/LOCATER V6.22                                                      11/08/2018  15:11:09  PAGE 73


TIMER1INTERRUPT. . . . @0xc000
TIMER3INTERRUPT. . . . @0xf38f
TIMER4INTERRUPT. . . . @0xe301
TIMER5INTERRUPT. . . . @0xf303
TIMER6INTERRUPT. . . . @0xf303
UART1INTERRUPT . . . . @0xc000
UART2INTERRUPT . . . . @0xe000

Program Size: data=72.1 xdata=5 code=6831
LINK/LOCATE RUN COMPLETE.  0 WARNING(S),  0 ERROR(S)
