BL51 BANKED LINKER/LOCATER V6.22                                                        05/14/2019  21:59:46  PAGE 1


BL51 BANKED LINKER/LOCATER V6.22, INVOKED BY:
C:\KEIL\V5\C51\BIN\BL51.EXE .\OUTPUT\STARTUP.obj, .\OUTPUT\main.obj, .\OUTPUT\initial.obj, .\OUTPUT\interrupt.obj, .\OUT
>> PUT\MotorLib.obj, .\OUTPUT\ISD51.obj, .\OUTPUT\IQmathLib.obj, .\OUTPUT\IQmathasm.obj TO .\OUTPUT\motor REGFILE (.\OUT
>> PUT\motor.ORC) PRINT (.\files\motor.m51) DISABLEWARNING (16) CODE (0X2000-0X9FFF) XDATA (0XA000-0XDFFF)


MEMORY MODEL: SMALL


INPUT MODULES INCLUDED:
  .\OUTPUT\STARTUP.obj (?C_STARTUP)
  .\OUTPUT\main.obj (MAIN)
  .\OUTPUT\initial.obj (INITIAL)
  .\OUTPUT\interrupt.obj (INTERRUPT)
  .\OUTPUT\MotorLib.obj (MOTORLIB)
  .\OUTPUT\ISD51.obj (ISD51_CONFIGURATION)
  .\OUTPUT\IQmathLib.obj (IQMATHLIB)
  .\OUTPUT\IQmathasm.obj (IQMATHASM)
  C:\KEIL\V5\C51\LIB\C51S.LIB (?C?SCDIV)
  C:\KEIL\V5\C51\LIB\C51S.LIB (?C?LMUL)
  C:\KEIL\V5\C51\LIB\C51S.LIB (?C?SLDIV)
  C:\KEIL\V5\C51\LIB\C51S.LIB (?C?LNEG)
  C:\KEIL\V5\C51\LIB\C51S.LIB (?C?SLCMP)
  C:\KEIL\V5\C51\LIB\C51S.LIB (?C?LSHL)
  C:\KEIL\V5\C51\LIB\C51S.LIB (?C?LSTXDATA)
  C:\KEIL\V5\C51\LIB\C51S.LIB (ISD_CORE_FUNCTIONS)
  C:\KEIL\V5\C51\LIB\C51S.LIB (?C?ULDIV)


LINK MAP OF MODULE:  .\OUTPUT\motor (?C_STARTUP)


            TYPE    BASE      LENGTH    RELOCATION   SEGMENT NAME
            -----------------------------------------------------

            * * * * * * *   D A T A   M E M O R Y   * * * * * * *
            REG     0000H     0008H     ABSOLUTE     "REG BANK 0"
            DATA    0008H     0011H     UNIT         ?DT?IQMATHLIB
            DATA    0019H     0005H     UNIT         ?DT?_EE_WRITE?MOTORLIB
            DATA    001EH     0001H     UNIT         ?DT?_EE_READ?MOTORLIB
            DATA    001FH     0001H     UNIT         ?DT?ISD51
            BIT     0020H.0   0000H.1   UNIT         ?BI?ISD51
                    0020H.1   0000H.7                *** GAP ***
            DATA    0021H     0008H     UNIT         ?DT?__IQMUL?IQMATHLIB
            DATA    0029H     0008H     UNIT         ?DT?__IQ15ATAN2?IQMATHLIB
            DATA    0031H     0008H     UNIT         ?DT?__IQ15MAG?IQMATHLIB
            DATA    0039H     0005H     UNIT         ?DT?_BARRELSHIFT?IQMATHASM
            DATA    003EH     0004H     UNIT         ?DT?__IQ15SIN?IQMATHLIB
            DATA    0042H     0004H     UNIT         ?DT?__IQ15SQRT?IQMATHLIB
            DATA    0046H     0004H     UNIT         ?DT?_NORMALIZE?IQMATHASM
            DATA    004AH     0004H     UNIT         ?DT?__IQABS?IQMATHASM
            IDATA   004EH     0001H     UNIT         ?STACK

            * * * * * * *  X D A T A   M E M O R Y  * * * * * * *
                    0000H     A000H                  *** GAP ***
            XDATA   A000H     0020H     UNIT         ?XD?MAIN

            * * * * * * *   C O D E   M E M O R Y   * * * * * * *
BL51 BANKED LINKER/LOCATER V6.22                                                      05/14/2019  21:59:46  PAGE 2


                    0000H     2000H                  *** GAP ***
            CODE    2000H     0003H     ABSOLUTE     
            CODE    2003H     0003H     ABSOLUTE     
            CODE    2006H     0003H     UNIT         ?PR?TIMER1INTERRUPT?INTERRUPT
                    2009H     0002H                  *** GAP ***
            CODE    200BH     0003H     ABSOLUTE     
                    200EH     0005H                  *** GAP ***
            CODE    2013H     0003H     ABSOLUTE     
                    2016H     0005H                  *** GAP ***
            CODE    201BH     0003H     ABSOLUTE     
                    201EH     0005H                  *** GAP ***
            CODE    2023H     0003H     ABSOLUTE     
            CODE    2026H     0015H     UNIT         ?PR?UART2INTERRUPT?INTERRUPT
            CODE    203BH     0008H     UNIT         ?PR?__IQABS?IQMATHASM
            CODE    2043H     0003H     ABSOLUTE     
                    2046H     0005H                  *** GAP ***
            CODE    204BH     0003H     ABSOLUTE     
                    204EH     0005H                  *** GAP ***
            CODE    2053H     0003H     ABSOLUTE     
                    2056H     0005H                  *** GAP ***
            CODE    205BH     0003H     ABSOLUTE     
                    205EH     0005H                  *** GAP ***
            CODE    2063H     0003H     ABSOLUTE     
                    2066H     0005H                  *** GAP ***
            CODE    206BH     0003H     ABSOLUTE     
            CODE    206EH     0014H     UNIT         ?PR?_BARRELSHIFT?IQMATHASM
                    2082H     0001H                  *** GAP ***
            CODE    2083H     0003H     ABSOLUTE     
                    2086H     0005H                  *** GAP ***
            CODE    208BH     0003H     ABSOLUTE     
            CODE    208EH     000FH     UNIT         ?C_C51STARTUP
                    209DH     0006H                  *** GAP ***
            CODE    20A3H     0003H     ABSOLUTE     
                    20A6H     0005H                  *** GAP ***
            CODE    20ABH     0003H     ABSOLUTE     
                    20AEH     0005H                  *** GAP ***
            CODE    20B3H     0003H     ABSOLUTE     
                    20B6H     0005H                  *** GAP ***
            CODE    20BBH     0003H     ABSOLUTE     
                    20BEH     0005H                  *** GAP ***
            CODE    20C3H     0003H     ABSOLUTE     
                    20C6H     0005H                  *** GAP ***
            CODE    20CBH     0003H     ABSOLUTE     
                    20CEH     0005H                  *** GAP ***
            CODE    20D3H     0003H     ABSOLUTE     
                    20D6H     0005H                  *** GAP ***
            CODE    20DBH     0003H     ABSOLUTE     
                    20DEH     0005H                  *** GAP ***
            CODE    20E3H     0003H     ABSOLUTE     
                    20E6H     0005H                  *** GAP ***
            CODE    20EBH     0003H     ABSOLUTE     
                    20EEH     0005H                  *** GAP ***
            CODE    20F3H     0003H     ABSOLUTE     
            CODE    20F6H     0800H     UNIT         ?CO?IQMATHLIB
            CODE    28F6H     0774H     UNIT         ?PR?INITEPWM?INITIAL
            CODE    306AH     0340H     INBLOCK      ?PR?ISD51
            CODE    33AAH     023EH     UNIT         ?PR?__IQ15ATAN2?IQMATHLIB
BL51 BANKED LINKER/LOCATER V6.22                                                      05/14/2019  21:59:46  PAGE 3


            CODE    35E8H     0192H     UNIT         ?PR?__IQ15SQRT?IQMATHLIB
            CODE    377AH     018BH     UNIT         ?PR?TIMER3INTERRUPT?INTERRUPT
            CODE    3905H     0182H     UNIT         ?C?LIB_CODE
            CODE    3A87H     016EH     UNIT         ?PR?INITGPIO?INITIAL
            CODE    3BF5H     0119H     UNIT         ?PR?__IQMUL?IQMATHLIB
            CODE    3D0EH     0116H     UNIT         ?PR?__IQ15SIN?IQMATHLIB
            CODE    3E24H     010CH     UNIT         ?PR?INITCOMPARATOR?INITIAL
            CODE    3F30H     00A2H     UNIT         ?PR?__IQ15MAG?IQMATHLIB
            CODE    3FD2H     009DH     UNIT         ?PR?INITADC?INITIAL
            CODE    406FH     0094H     UNIT         ?PR?EXT1234INTERRUPT?INTERRUPT
            CODE    4103H     0093H     UNIT         ?PR?TIMER6INTERRUPT?INTERRUPT
            CODE    4196H     0093H     UNIT         ?PR?COMP234INTERRUPT?INTERRUPT
            CODE    4229H     007BH     UNIT         ?PR?I2CINTERRUPT?INTERRUPT
            CODE    42A4H     007BH     UNIT         ?PR?SPIINTERRUPT?INTERRUPT
            CODE    431FH     007BH     UNIT         ?PR?EFLASHINTERRUPT?INTERRUPT
            CODE    439AH     0077H     UNIT         ?PR?TIMER5INTERRUPT?INTERRUPT
            CODE    4411H     0072H     UNIT         ?PR?EPWM123INTERRUPT?INTERRUPT
            CODE    4483H     0070H     UNIT         ?PR?TIMER4INTERRUPT?INTERRUPT
            CODE    44F3H     0065H     UNIT         ?PR?SYSTEMCLOCK?INITIAL
            CODE    4558H     0062H     UNIT         ?PR?EPWM4INTERRUPT?INTERRUPT
            CODE    45BAH     005BH     UNIT         ?PR?RTCINTERRUPT?INTERRUPT
            CODE    4615H     005BH     UNIT         ?PR?LDV18INTERRUPT?INTERRUPT
            CODE    4670H     005BH     UNIT         ?PR?LDV33INTERRUPT?INTERRUPT
            CODE    46CBH     004CH     UNIT         ?PR?_EE_WRITE?MOTORLIB
            CODE    4717H     004BH     UNIT         ?PR?_EE_READ?MOTORLIB
            CODE    4762H     0046H     UNIT         ?PR?INITISDDEBUG?INITIAL
            CODE    47A8H     0044H     UNIT         ?PR?MAIN?MAIN
            CODE    47ECH     0044H     UNIT         ?C?LDIV
            CODE    4830H     0043H     UNIT         ?PR?INITDAC?INITIAL
            CODE    4873H     0042H     UNIT         ?PR?ADCINTERRUPT?INTERRUPT
            CODE    48B5H     0041H     UNIT         ?PR?COMP1INTERRUPT?INTERRUPT
            CODE    48F6H     0037H     UNIT         ?PR?INITTIMER5?INITIAL
            CODE    492DH     0035H     UNIT         ?PR?INITTIMER6?INITIAL
            CODE    4962H     002DH     UNIT         ?PR?INITTIMER3?INITIAL
            CODE    498FH     002DH     UNIT         ?PR?INITTIMER4?INITIAL
            CODE    49BCH     0027H     UNIT         ?PR?TIMER0INTERRUPT?INTERRUPT
            CODE    49E3H     0023H     UNIT         ?PR?INITTIMER01?INITIAL
            CODE    4A06H     0022H     UNIT         ?PR?_NORMALIZE?IQMATHASM
            CODE    4A28H     001FH     UNIT         ?PR?INITEXT?INITIAL
            CODE    4A47H     001EH     UNIT         ?PR?INITWATCHDOG?INITIAL
            CODE    4A65H     000DH     UNIT         ?PR?EPWMOUTPUTDISABLE?INITIAL
            CODE    4A72H     000DH     UNIT         ?PR?EPWMOUTPUTENABLE?INITIAL
            CODE    4A7FH     000DH     UNIT         ?PR?SINITUART1?INITIAL
            CODE    4A8CH     000BH     UNIT         ?PR?UART1INTERRUPT?INTERRUPT
            CODE    4A97H     000AH     UNIT         ?PR?INITBREAKPOINT?INITIAL
            CODE    4AA1H     000AH     UNIT         ?PR?SINITUART2?INITIAL



OVERLAY MAP OF MODULE:   .\OUTPUT\motor (?C_STARTUP)


SEGMENT
  +--> CALLED SEGMENT
---------------------
?C_C51STARTUP
  +--> ?PR?MAIN?MAIN
BL51 BANKED LINKER/LOCATER V6.22                                                      05/14/2019  21:59:46  PAGE 4



?PR?MAIN?MAIN
  +--> ?PR?SYSTEMCLOCK?INITIAL
  +--> ?PR?INITISDDEBUG?INITIAL
  +--> ?PR?INITGPIO?INITIAL
  +--> ?PR?__IQMUL?IQMATHLIB
  +--> ?PR?ISD51

?PR?INITISDDEBUG?INITIAL
  +--> ?PR?INITBREAKPOINT?INITIAL
  +--> ?PR?SINITUART1?INITIAL
  +--> ?PR?ISD51

?PR?__IQMUL?IQMATHLIB
  +--> ?PR?_BARRELSHIFT?IQMATHASM



SYMBOL TABLE OF MODULE:  .\OUTPUT\motor (?C_STARTUP)

  VALUE           TYPE          NAME
  ----------------------------------

  -------         MODULE        ?C_STARTUP
  C:208EH         SEGMENT       ?C_C51STARTUP
  I:004EH         SEGMENT       ?STACK
  C:2000H         PUBLIC        ?C_STARTUP
  D:00E0H         SYMBOL        ACC
  D:00F0H         SYMBOL        B
  D:0083H         SYMBOL        DPH
  D:0082H         SYMBOL        DPL
  N:0000H         SYMBOL        IBPSTACK
  N:0100H         SYMBOL        IBPSTACKTOP
  N:0080H         SYMBOL        IDATALEN
  C:2091H         SYMBOL        IDATALOOP
  N:0000H         SYMBOL        PBPSTACK
  N:0100H         SYMBOL        PBPSTACKTOP
  N:0000H         SYMBOL        PDATALEN
  N:0000H         SYMBOL        PDATASTART
  N:0000H         SYMBOL        PPAGE
  N:0001H         SYMBOL        PPAGEENABLE
  D:00A0H         SYMBOL        PPAGE_SFR
  D:0081H         SYMBOL        SP
  C:208EH         SYMBOL        STARTUP1
  N:0000H         SYMBOL        XBPSTACK
  N:0000H         SYMBOL        XBPSTACKTOP
  N:0000H         SYMBOL        XDATALEN
  N:0000H         SYMBOL        XDATASTART
  C:2000H         LINE#         127
  C:208EH         LINE#         134
  C:2090H         LINE#         135
  C:2091H         LINE#         136
  C:2092H         LINE#         137
  C:2094H         LINE#         156
  C:2097H         LINE#         186
  C:209AH         LINE#         197
  -------         ENDMOD        ?C_STARTUP
BL51 BANKED LINKER/LOCATER V6.22                                                      05/14/2019  21:59:46  PAGE 5



  -------         MODULE        MAIN
  C:0000H         SYMBOL        _ICE_DUMMY_
  D:0080H         PUBLIC        P0
  D:0090H         PUBLIC        P1
  D:00A0H         PUBLIC        P2
  D:00B0H         PUBLIC        P3
  X:A000H         PUBLIC        EE_data
  D:00A8H         PUBLIC        IEN0
  D:00B8H         PUBLIC        IEN1
  X:A004H         PUBLIC        last_capture
  X:A008H         PUBLIC        this_capture
  B:00A8H.4       PUBLIC        ES
  X:A00CH         PUBLIC        theta
  B:0098H.0       PUBLIC        RI
  X:A010H         PUBLIC        beta
  X:A014H         PUBLIC        result
  C:47A8H         PUBLIC        main
  X:A018H         PUBLIC        ADresult
  X:A01AH         PUBLIC        pwm_capture
  D:0099H         PUBLIC        SBUF
  D:0088H         PUBLIC        TCON
  B:00A0H.6       PUBLIC        P26
  X:A01EH         PUBLIC        tmr3_ov
  B:00A8H.7       PUBLIC        EAL
  D:0098H         PUBLIC        S0CON
  D:00C8H         PUBLIC        T2CON
  X:A01FH         PUBLIC        capture_flag
  D:00D8H         PUBLIC        WDCON
  D:00C0H         PUBLIC        IRCON
  -------         PROC          MAIN
  C:47A8H         LINE#         29
  C:47A8H         LINE#         30
  C:47A8H         LINE#         33
  C:47ABH         LINE#         34
  C:47AEH         LINE#         44
  C:47B1H         LINE#         49
  C:47B3H         LINE#         50
  C:47B5H         LINE#         51
  C:47B5H         LINE#         52
  C:47B5H         LINE#         61
  C:47B7H         LINE#         63
  C:47D4H         LINE#         66
  C:47D6H         LINE#         84
  C:47E9H         LINE#         87
  C:47EBH         LINE#         88
  -------         ENDPROC       MAIN
  -------         ENDMOD        MAIN

  -------         MODULE        INITIAL
  C:4A28H         SEGMENT       ?PR?INITEXT?INITIAL
  C:4762H         SEGMENT       ?PR?INITISDDEBUG?INITIAL
  C:4A97H         SEGMENT       ?PR?INITBREAKPOINT?INITIAL
  C:4A65H         SEGMENT       ?PR?EPWMOUTPUTDISABLE?INITIAL
  C:4A72H         SEGMENT       ?PR?EPWMOUTPUTENABLE?INITIAL
  C:3FD2H         SEGMENT       ?PR?INITADC?INITIAL
  C:28F6H         SEGMENT       ?PR?INITEPWM?INITIAL
BL51 BANKED LINKER/LOCATER V6.22                                                      05/14/2019  21:59:46  PAGE 6


  C:3E24H         SEGMENT       ?PR?INITCOMPARATOR?INITIAL
  C:4A47H         SEGMENT       ?PR?INITWATCHDOG?INITIAL
  C:3A87H         SEGMENT       ?PR?INITGPIO?INITIAL
  C:49E3H         SEGMENT       ?PR?INITTIMER01?INITIAL
  C:4962H         SEGMENT       ?PR?INITTIMER3?INITIAL
  C:498FH         SEGMENT       ?PR?INITTIMER4?INITIAL
  C:48F6H         SEGMENT       ?PR?INITTIMER5?INITIAL
  C:492DH         SEGMENT       ?PR?INITTIMER6?INITIAL
  C:44F3H         SEGMENT       ?PR?SYSTEMCLOCK?INITIAL
  C:4A7FH         SEGMENT       ?PR?SINITUART1?INITIAL
  C:4AA1H         SEGMENT       ?PR?SINITUART2?INITIAL
  C:4830H         SEGMENT       ?PR?INITDAC?INITIAL
  C:4A65H         PUBLIC        EPWMOUTPUTDISABLE
  C:4A72H         PUBLIC        EPWMOUTPUTENABLE
  C:3FD2H         PUBLIC        INITADC
  C:4A97H         PUBLIC        INITBREAKPOINT
  C:3E24H         PUBLIC        INITCOMPARATOR
  C:4830H         PUBLIC        INITDAC
  C:28F6H         PUBLIC        INITEPWM
  C:4A28H         PUBLIC        INITEXT
  C:3A87H         PUBLIC        INITGPIO
  C:4762H         PUBLIC        INITISDDEBUG
  C:49E3H         PUBLIC        INITTIMER01
  C:4962H         PUBLIC        INITTIMER3
  C:498FH         PUBLIC        INITTIMER4
  C:48F6H         PUBLIC        INITTIMER5
  C:492DH         PUBLIC        INITTIMER6
  C:4A47H         PUBLIC        INITWATCHDOG
  C:4A7FH         PUBLIC        SINITUART1
  C:4AA1H         PUBLIC        SINITUART2
  C:44F3H         PUBLIC        SYSTEMCLOCK
  C:4A46H         SYMBOL        ?C0001
  C:477BH         SYMBOL        ?C0002
  C:479BH         SYMBOL        ?C0003
  C:4792H         SYMBOL        ?C0004
  C:4792H         SYMBOL        ?C0005
  C:478FH         SYMBOL        ?C0006
  C:4792H         SYMBOL        ?C0007
  C:4799H         SYMBOL        ?C0008
  C:47A7H         SYMBOL        ?C0009
  C:4AA0H         SYMBOL        ?C0010
  C:4A71H         SYMBOL        ?C0011
  C:4A7EH         SYMBOL        ?C0012
  C:406EH         SYMBOL        ?C0013
  C:3069H         SYMBOL        ?C0014
  C:3F2FH         SYMBOL        ?C0015
  C:4A64H         SYMBOL        ?C0016
  C:3BF4H         SYMBOL        ?C0017
  C:4A05H         SYMBOL        ?C0018
  C:498EH         SYMBOL        ?C0019
  C:49BBH         SYMBOL        ?C0020
  C:492CH         SYMBOL        ?C0021
  C:4961H         SYMBOL        ?C0022
  C:4557H         SYMBOL        ?C0023
  C:4A8BH         SYMBOL        ?C0024
  C:4AAAH         SYMBOL        ?C0025
  C:4872H         SYMBOL        ?C0026
BL51 BANKED LINKER/LOCATER V6.22                                                      05/14/2019  21:59:46  PAGE 7


  D:00E0H         SYMBOL        ACC
  D:00EFH         SYMBOL        ARCON
  D:00F0H         SYMBOL        B
  D:0093H         SYMBOL        BPCTRL
  D:0095H         SYMBOL        BREAKH
  D:0094H         SYMBOL        BREAKL
  D:00ABH         SYMBOL        BSHCTL
  D:00ACH         SYMBOL        BSHI
  D:00ACH         SYMBOL        BSHI_0
  D:00ADH         SYMBOL        BSHI_1
  D:00AEH         SYMBOL        BSHI_2
  D:00AFH         SYMBOL        BSHI_3
  D:00BCH         SYMBOL        BSHO
  D:00BCH         SYMBOL        BSHO_0
  D:00BDH         SYMBOL        BSHO_1
  D:00BEH         SYMBOL        BSHO_2
  D:00BFH         SYMBOL        BSHO_3
  D:008EH         SYMBOL        CKCON
  D:0091H         SYMBOL        CLK_DIV
  D:008FH         SYMBOL        CLK_PD_CON
  D:0083H         SYMBOL        DPH
  D:0085H         SYMBOL        DPH1
  D:0082H         SYMBOL        DPL
  D:0084H         SYMBOL        DPL1
  D:0092H         SYMBOL        DPS
  B:00B8H.0       SYMBOL        EADC
  B:00A8H.7       SYMBOL        EAL
  B:00A8H.4       SYMBOL        ES
  B:00A8H.4       SYMBOL        ES0
  B:00A8H.1       SYMBOL        ET0
  B:00A8H.3       SYMBOL        ET1
  B:00A8H.0       SYMBOL        EX0
  B:00A8H.2       SYMBOL        EX1
  B:00B8H.1       SYMBOL        EX2
  B:00B8H.2       SYMBOL        EX3
  B:00B8H.3       SYMBOL        EX4
  B:00B8H.4       SYMBOL        EX5
  B:00B8H.5       SYMBOL        EX6
  B:00C8H.5       SYMBOL        I2FR
  B:00C8H.6       SYMBOL        I3FR
  B:00C0H.0       SYMBOL        IADC
  D:00A8H         SYMBOL        IE
  B:0088H.1       SYMBOL        IE0
  B:0088H.3       SYMBOL        IE1
  D:00A8H         SYMBOL        IEN0
  D:00B8H         SYMBOL        IEN1
  D:009AH         SYMBOL        IEN2
  B:00C0H.1       SYMBOL        IEX2
  B:00C0H.2       SYMBOL        IEX3
  B:00C0H.3       SYMBOL        IEX4
  B:00C0H.4       SYMBOL        IEX5
  B:00C0H.5       SYMBOL        IEX6
  N:0000H         SYMBOL        INITIAL
  D:00F9H         SYMBOL        INT_REG1
  D:00FAH         SYMBOL        INT_REG2
  D:00FDH         SYMBOL        INT_REG3
  D:00FEH         SYMBOL        INT_REG4
BL51 BANKED LINKER/LOCATER V6.22                                                      05/14/2019  21:59:46  PAGE 8


  D:00A9H         SYMBOL        IP0
  D:00B9H         SYMBOL        IP1
  D:00C0H         SYMBOL        IRCON
  B:0088H.0       SYMBOL        IT0
  B:0088H.2       SYMBOL        IT1
  D:00E9H         SYMBOL        MD0
  D:00EAH         SYMBOL        MD1
  D:00EBH         SYMBOL        MD2
  D:00ECH         SYMBOL        MD3
  D:00EDH         SYMBOL        MD4
  D:00EEH         SYMBOL        MD5
  D:00E8H         SYMBOL        MEM_CONFIG
  D:0080H         SYMBOL        P0
  B:0080H.0       SYMBOL        P00
  B:0080H.1       SYMBOL        P01
  B:0080H.2       SYMBOL        P02
  B:0080H.3       SYMBOL        P03
  B:0080H.4       SYMBOL        P04
  B:0080H.5       SYMBOL        P05
  B:0080H.6       SYMBOL        P06
  B:0080H.7       SYMBOL        P07
  D:0090H         SYMBOL        P1
  B:0090H.0       SYMBOL        P10
  B:0090H.1       SYMBOL        P11
  B:0090H.2       SYMBOL        P12
  B:0090H.3       SYMBOL        P13
  B:0090H.4       SYMBOL        P14
  B:0090H.5       SYMBOL        P15
  B:0090H.6       SYMBOL        P16
  B:0090H.7       SYMBOL        P17
  D:00B1H         SYMBOL        P1AQCSFRC
  D:00A7H         SYMBOL        P1AQSFRC
  D:00A3H         SYMBOL        P1CMPA
  D:00A4H         SYMBOL        P1CMPA_H
  D:00A3H         SYMBOL        P1CMPA_L
  D:00A5H         SYMBOL        P1CMPB
  D:00A6H         SYMBOL        P1CMPB_H
  D:00A5H         SYMBOL        P1CMPB_L
  D:00B6H         SYMBOL        P1ETCLR
  D:00B5H         SYMBOL        P1ETFLG
  D:00B7H         SYMBOL        P1ETFRC
  D:00A1H         SYMBOL        P1TBPRD
  D:00A2H         SYMBOL        P1TBPRD_H
  D:00A1H         SYMBOL        P1TBPRD_L
  D:00B3H         SYMBOL        P1TZCLR
  D:00B2H         SYMBOL        P1TZFLG
  D:00B4H         SYMBOL        P1TZFRC
  D:00A0H         SYMBOL        P2
  B:00A0H.0       SYMBOL        P20
  B:00A0H.1       SYMBOL        P21
  B:00A0H.2       SYMBOL        P22
  B:00A0H.3       SYMBOL        P23
  B:00A0H.4       SYMBOL        P24
  B:00A0H.5       SYMBOL        P25
  B:00A0H.6       SYMBOL        P26
  B:00A0H.7       SYMBOL        P27
  D:00C9H         SYMBOL        P2AQCSFRC
BL51 BANKED LINKER/LOCATER V6.22                                                      05/14/2019  21:59:46  PAGE 9


  D:00C7H         SYMBOL        P2AQSFRC
  D:00C3H         SYMBOL        P2CMPA
  D:00C4H         SYMBOL        P2CMPA_H
  D:00C3H         SYMBOL        P2CMPA_L
  D:00C5H         SYMBOL        P2CMPB
  D:00C6H         SYMBOL        P2CMPB_H
  D:00C5H         SYMBOL        P2CMPB_L
  D:00CEH         SYMBOL        P2ETCLR
  D:00CDH         SYMBOL        P2ETFLG
  D:00CFH         SYMBOL        P2ETFRC
  D:00C1H         SYMBOL        P2TBPRD
  D:00C2H         SYMBOL        P2TBPRD_H
  D:00C1H         SYMBOL        P2TBPRD_L
  D:00CBH         SYMBOL        P2TZCLR
  D:00CAH         SYMBOL        P2TZFLG
  D:00CCH         SYMBOL        P2TZFRC
  D:00B0H         SYMBOL        P3
  B:00B0H.0       SYMBOL        P30
  B:00B0H.1       SYMBOL        P31
  B:00B0H.2       SYMBOL        P32
  B:00B0H.3       SYMBOL        P33
  B:00B0H.4       SYMBOL        P34
  B:00B0H.5       SYMBOL        P35
  B:00B0H.6       SYMBOL        P36
  B:00B0H.7       SYMBOL        P37
  D:00D9H         SYMBOL        P3AQCSFRC
  D:00D7H         SYMBOL        P3AQSFRC
  D:00D3H         SYMBOL        P3CMPA
  D:00D4H         SYMBOL        P3CMPA_H
  D:00D3H         SYMBOL        P3CMPA_L
  D:00D5H         SYMBOL        P3CMPB
  D:00D6H         SYMBOL        P3CMPB_H
  D:00D5H         SYMBOL        P3CMPB_L
  D:00DEH         SYMBOL        P3ETCLR
  D:00DDH         SYMBOL        P3ETFLG
  D:00DFH         SYMBOL        P3ETFRC
  D:00D1H         SYMBOL        P3TBPRD
  D:00D2H         SYMBOL        P3TBPRD_H
  D:00D1H         SYMBOL        P3TBPRD_L
  D:00DBH         SYMBOL        P3TZCLR
  D:00DAH         SYMBOL        P3TZFLG
  D:00DCH         SYMBOL        P3TZFRC
  D:00F1H         SYMBOL        P4AQCSFRC
  D:00E7H         SYMBOL        P4AQSFRC
  D:00E3H         SYMBOL        P4CMPA
  D:00E4H         SYMBOL        P4CMPA_H
  D:00E3H         SYMBOL        P4CMPA_L
  D:00E5H         SYMBOL        P4CMPB
  D:00E6H         SYMBOL        P4CMPB_H
  D:00E5H         SYMBOL        P4CMPB_L
  D:00F6H         SYMBOL        P4ETCLR
  D:00F5H         SYMBOL        P4ETFLG
  D:00F7H         SYMBOL        P4ETFRC
  D:00E1H         SYMBOL        P4TBPRD
  D:00E2H         SYMBOL        P4TBPRD_H
  D:00E1H         SYMBOL        P4TBPRD_L
  D:00F3H         SYMBOL        P4TZCLR
BL51 BANKED LINKER/LOCATER V6.22                                                      05/14/2019  21:59:46  PAGE 10


  D:00F2H         SYMBOL        P4TZFLG
  D:00F4H         SYMBOL        P4TZFRC
  D:0087H         SYMBOL        PCON
  D:0097H         SYMBOL        POWER_CON
  D:00D0H         SYMBOL        PSW
  B:0098H.2       SYMBOL        RB80
  B:0098H.4       SYMBOL        REN0
  B:0098H.0       SYMBOL        RI
  B:0098H.0       SYMBOL        RI0
  D:0099H         SYMBOL        S0BUF
  D:0098H         SYMBOL        S0CON
  D:00BAH         SYMBOL        S0RELH
  D:00AAH         SYMBOL        S0RELL
  D:009CH         SYMBOL        S1BUF
  D:009BH         SYMBOL        S1CON
  D:00BBH         SYMBOL        S1RELH
  D:009DH         SYMBOL        S1RELL
  D:0099H         SYMBOL        SBUF
  B:0098H.7       SYMBOL        SM0
  B:0098H.6       SYMBOL        SM1
  B:0098H.5       SYMBOL        SM20
  D:0081H         SYMBOL        SP
  D:00F8H         SYMBOL        SRAM_CON
  B:00B8H.6       SYMBOL        SWDT
  D:00C8H         SYMBOL        T2CON
  B:0098H.3       SYMBOL        TB80
  D:0088H         SYMBOL        TCON
  B:0088H.5       SYMBOL        TF0
  B:0088H.7       SYMBOL        TF1
  D:008CH         SYMBOL        TH0
  D:008DH         SYMBOL        TH1
  B:0098H.1       SYMBOL        TI0
  D:008AH         SYMBOL        TL0
  D:008BH         SYMBOL        TL1
  D:0089H         SYMBOL        TMOD
  B:0088H.4       SYMBOL        TR0
  B:0088H.6       SYMBOL        TR1
  D:00D8H         SYMBOL        WDCON
  B:00D8H.7       SYMBOL        WDCON_7
  B:00A8H.6       SYMBOL        WDT
  D:0086H         SYMBOL        WDTREL
  C:4A28H         LINE#         284
  C:4A2BH         LINE#         285
  C:4A2DH         LINE#         286
  C:4A2EH         LINE#         294
  C:4A31H         LINE#         295
  C:4A32H         LINE#         296
  C:4A33H         LINE#         297
  C:4A34H         LINE#         298
  C:4A36H         LINE#         299
  C:4A37H         LINE#         300
  C:4A38H         LINE#         301
  C:4A3AH         LINE#         302
  C:4A3BH         LINE#         303
  C:4A3CH         LINE#         304
  C:4A3DH         LINE#         307
  C:4A3FH         LINE#         310
BL51 BANKED LINKER/LOCATER V6.22                                                      05/14/2019  21:59:46  PAGE 11


  C:4A41H         LINE#         313
  C:4A43H         LINE#         316
  C:4A46H         LINE#         321
  C:4762H         LINE#         336
  C:4764H         LINE#         341
  C:4767H         LINE#         344
  C:476AH         LINE#         348
  C:476DH         LINE#         351
  C:4770H         LINE#         354
  C:4772H         LINE#         357
  C:4774H         LINE#         360
  C:4776H         LINE#         363
  C:4778H         LINE#         366
  C:4779H         LINE#         369
  C:477AH         LINE#         372
  C:477BH         LINE#         380
  C:477DH         LINE#         383
  C:477FH         LINE#         386
  C:4782H         LINE#         387
  C:4785H         LINE#         388
  C:4787H         LINE#         389
  C:4789H         LINE#         390
  C:478BH         LINE#         391
  C:478DH         LINE#         392
  C:478FH         LINE#         394
  C:4792H         LINE#         400
  C:4794H         LINE#         401
  C:4797H         LINE#         402
  C:4799H         LINE#         406
  C:479BH         LINE#         410
  C:479CH         LINE#         413
  C:479DH         LINE#         416
  C:479EH         LINE#         419
  C:47A0H         LINE#         422
  C:47A2H         LINE#         425
  C:47A3H         LINE#         428
  C:47A4H         LINE#         431
  C:47A5H         LINE#         436
  C:47A7H         LINE#         440
  C:4A97H         LINE#         457
  C:4A9AH         LINE#         460
  C:4A9DH         LINE#         463
  C:4AA0H         LINE#         467
  C:4A65H         LINE#         480
  C:4A68H         LINE#         483
  C:4A6BH         LINE#         486
  C:4A6EH         LINE#         489
  C:4A71H         LINE#         493
  C:4A72H         LINE#         506
  C:4A75H         LINE#         509
  C:4A78H         LINE#         512
  C:4A7BH         LINE#         515
  C:4A7EH         LINE#         519
  C:3FD2H         LINE#         534
  C:3FD5H         LINE#         535
  C:3FD6H         LINE#         536
  C:3FD7H         LINE#         539
BL51 BANKED LINKER/LOCATER V6.22                                                      05/14/2019  21:59:46  PAGE 12


  C:3FDAH         LINE#         540
  C:3FDBH         LINE#         541
  C:3FDCH         LINE#         542
  C:3FDDH         LINE#         543
  C:3FDFH         LINE#         544
  C:3FE0H         LINE#         545
  C:3FE1H         LINE#         546
  C:3FE2H         LINE#         549
  C:3FE5H         LINE#         550
  C:3FE6H         LINE#         551
  C:3FE7H         LINE#         552
  C:3FE8H         LINE#         553
  C:3FEAH         LINE#         554
  C:3FEBH         LINE#         555
  C:3FECH         LINE#         556
  C:3FEDH         LINE#         559
  C:3FF0H         LINE#         560
  C:3FF2H         LINE#         561
  C:3FF3H         LINE#         567
  C:3FF6H         LINE#         568
  C:3FF7H         LINE#         569
  C:3FF8H         LINE#         570
  C:3FF9H         LINE#         571
  C:3FFBH         LINE#         572
  C:3FFCH         LINE#         573
  C:3FFDH         LINE#         574
  C:3FFEH         LINE#         577
  C:4001H         LINE#         578
  C:4002H         LINE#         579
  C:4003H         LINE#         580
  C:4004H         LINE#         581
  C:4006H         LINE#         582
  C:4007H         LINE#         583
  C:4008H         LINE#         584
  C:4009H         LINE#         590
  C:400CH         LINE#         591
  C:400DH         LINE#         592
  C:400EH         LINE#         593
  C:400FH         LINE#         594
  C:4011H         LINE#         595
  C:4012H         LINE#         596
  C:4013H         LINE#         597
  C:4015H         LINE#         598
  C:4016H         LINE#         599
  C:4017H         LINE#         600
  C:4018H         LINE#         603
  C:401BH         LINE#         604
  C:401CH         LINE#         605
  C:401DH         LINE#         606
  C:401EH         LINE#         607
  C:4020H         LINE#         608
  C:4021H         LINE#         609
  C:4022H         LINE#         610
  C:4024H         LINE#         611
  C:4025H         LINE#         612
  C:4026H         LINE#         613
  C:4027H         LINE#         616
BL51 BANKED LINKER/LOCATER V6.22                                                      05/14/2019  21:59:46  PAGE 13


  C:402AH         LINE#         617
  C:402BH         LINE#         618
  C:402CH         LINE#         619
  C:402DH         LINE#         620
  C:402FH         LINE#         621
  C:4030H         LINE#         622
  C:4031H         LINE#         623
  C:4033H         LINE#         624
  C:4034H         LINE#         625
  C:4035H         LINE#         626
  C:4036H         LINE#         631
  C:4039H         LINE#         632
  C:403AH         LINE#         633
  C:403BH         LINE#         634
  C:403CH         LINE#         635
  C:403EH         LINE#         636
  C:403FH         LINE#         637
  C:4040H         LINE#         638
  C:4041H         LINE#         641
  C:4044H         LINE#         642
  C:4045H         LINE#         643
  C:4046H         LINE#         644
  C:4047H         LINE#         645
  C:4049H         LINE#         646
  C:404AH         LINE#         647
  C:404BH         LINE#         648
  C:404CH         LINE#         652
  C:404FH         LINE#         653
  C:4050H         LINE#         654
  C:4051H         LINE#         655
  C:4052H         LINE#         656
  C:4054H         LINE#         657
  C:4055H         LINE#         658
  C:4056H         LINE#         659
  C:4057H         LINE#         662
  C:405AH         LINE#         663
  C:405BH         LINE#         664
  C:405CH         LINE#         665
  C:405DH         LINE#         666
  C:405FH         LINE#         667
  C:4060H         LINE#         668
  C:4061H         LINE#         669
  C:4062H         LINE#         672
  C:4065H         LINE#         673
  C:4066H         LINE#         674
  C:4067H         LINE#         675
  C:4068H         LINE#         676
  C:4069H         LINE#         677
  C:406AH         LINE#         683
  C:406CH         LINE#         686
  C:406EH         LINE#         691
  C:28F6H         LINE#         710
  C:28F9H         LINE#         711
  C:28FAH         LINE#         712
  C:28FBH         LINE#         713
  C:28FCH         LINE#         714
  C:28FEH         LINE#         715
BL51 BANKED LINKER/LOCATER V6.22                                                      05/14/2019  21:59:46  PAGE 14


  C:28FFH         LINE#         716
  C:2900H         LINE#         717
  C:2902H         LINE#         718
  C:2903H         LINE#         719
  C:2904H         LINE#         720
  C:2905H         LINE#         723
  C:2908H         LINE#         724
  C:2909H         LINE#         725
  C:290AH         LINE#         726
  C:290BH         LINE#         727
  C:290DH         LINE#         728
  C:290EH         LINE#         729
  C:290FH         LINE#         730
  C:2911H         LINE#         731
  C:2912H         LINE#         732
  C:2913H         LINE#         733
  C:2914H         LINE#         737
  C:2917H         LINE#         738
  C:2918H         LINE#         739
  C:2919H         LINE#         740
  C:291AH         LINE#         741
  C:291CH         LINE#         742
  C:291DH         LINE#         743
  C:291EH         LINE#         744
  C:2920H         LINE#         745
  C:2921H         LINE#         746
  C:2922H         LINE#         747
  C:2923H         LINE#         750
  C:2926H         LINE#         751
  C:2927H         LINE#         752
  C:2928H         LINE#         753
  C:2929H         LINE#         754
  C:292BH         LINE#         755
  C:292CH         LINE#         756
  C:292DH         LINE#         757
  C:292FH         LINE#         758
  C:2930H         LINE#         759
  C:2931H         LINE#         760
  C:2932H         LINE#         764
  C:2935H         LINE#         765
  C:2936H         LINE#         766
  C:2937H         LINE#         767
  C:2938H         LINE#         768
  C:293AH         LINE#         769
  C:293BH         LINE#         770
  C:293CH         LINE#         771
  C:293EH         LINE#         772
  C:293FH         LINE#         773
  C:2940H         LINE#         774
  C:2941H         LINE#         777
  C:2944H         LINE#         778
  C:2945H         LINE#         779
  C:2946H         LINE#         780
  C:2947H         LINE#         781
  C:2949H         LINE#         782
  C:294AH         LINE#         783
  C:294BH         LINE#         784
BL51 BANKED LINKER/LOCATER V6.22                                                      05/14/2019  21:59:46  PAGE 15


  C:294DH         LINE#         785
  C:294EH         LINE#         786
  C:294FH         LINE#         787
  C:2950H         LINE#         797
  C:2953H         LINE#         798
  C:2956H         LINE#         801
  C:2959H         LINE#         802
  C:295CH         LINE#         805
  C:295FH         LINE#         806
  C:2962H         LINE#         809
  C:2965H         LINE#         810
  C:2968H         LINE#         818
  C:296BH         LINE#         819
  C:296CH         LINE#         820
  C:296DH         LINE#         821
  C:296EH         LINE#         822
  C:2970H         LINE#         823
  C:2971H         LINE#         824
  C:2972H         LINE#         825
  C:2973H         LINE#         828
  C:2976H         LINE#         829
  C:2977H         LINE#         830
  C:2978H         LINE#         831
  C:2979H         LINE#         832
  C:297BH         LINE#         833
  C:297CH         LINE#         834
  C:297DH         LINE#         835
  C:297EH         LINE#         838
  C:2981H         LINE#         839
  C:2982H         LINE#         840
  C:2983H         LINE#         841
  C:2984H         LINE#         842
  C:2986H         LINE#         843
  C:2987H         LINE#         844
  C:2988H         LINE#         845
  C:2989H         LINE#         848
  C:298CH         LINE#         849
  C:298DH         LINE#         850
  C:298EH         LINE#         851
  C:298FH         LINE#         852
  C:2991H         LINE#         853
  C:2992H         LINE#         854
  C:2993H         LINE#         855
  C:2994H         LINE#         858
  C:2997H         LINE#         859
  C:2998H         LINE#         860
  C:2999H         LINE#         861
  C:299AH         LINE#         862
  C:299CH         LINE#         863
  C:299DH         LINE#         864
  C:299EH         LINE#         865
  C:299FH         LINE#         872
  C:29A2H         LINE#         873
  C:29A3H         LINE#         874
  C:29A4H         LINE#         875
  C:29A5H         LINE#         876
  C:29A7H         LINE#         877
BL51 BANKED LINKER/LOCATER V6.22                                                      05/14/2019  21:59:46  PAGE 16


  C:29A8H         LINE#         878
  C:29A9H         LINE#         879
  C:29ABH         LINE#         880
  C:29ACH         LINE#         881
  C:29ADH         LINE#         882
  C:29AEH         LINE#         885
  C:29B1H         LINE#         886
  C:29B2H         LINE#         887
  C:29B3H         LINE#         888
  C:29B4H         LINE#         889
  C:29B6H         LINE#         890
  C:29B7H         LINE#         891
  C:29B8H         LINE#         892
  C:29BAH         LINE#         893
  C:29BBH         LINE#         894
  C:29BCH         LINE#         895
  C:29BDH         LINE#         898
  C:29C0H         LINE#         899
  C:29C1H         LINE#         900
  C:29C2H         LINE#         901
  C:29C3H         LINE#         902
  C:29C5H         LINE#         903
  C:29C6H         LINE#         904
  C:29C7H         LINE#         905
  C:29C9H         LINE#         906
  C:29CAH         LINE#         907
  C:29CBH         LINE#         908
  C:29CCH         LINE#         911
  C:29CFH         LINE#         912
  C:29D0H         LINE#         913
  C:29D1H         LINE#         914
  C:29D2H         LINE#         915
  C:29D4H         LINE#         916
  C:29D5H         LINE#         917
  C:29D6H         LINE#         918
  C:29D8H         LINE#         919
  C:29D9H         LINE#         920
  C:29DAH         LINE#         921
  C:29DBH         LINE#         926
  C:29DEH         LINE#         927
  C:29DFH         LINE#         928
  C:29E0H         LINE#         929
  C:29E1H         LINE#         930
  C:29E3H         LINE#         931
  C:29E4H         LINE#         932
  C:29E5H         LINE#         933
  C:29E6H         LINE#         940
  C:29E9H         LINE#         941
  C:29EAH         LINE#         942
  C:29EBH         LINE#         943
  C:29ECH         LINE#         944
  C:29EEH         LINE#         945
  C:29EFH         LINE#         946
  C:29F0H         LINE#         947
  C:29F2H         LINE#         948
  C:29F3H         LINE#         949
  C:29F4H         LINE#         950
BL51 BANKED LINKER/LOCATER V6.22                                                      05/14/2019  21:59:46  PAGE 17


  C:29F5H         LINE#         953
  C:29F8H         LINE#         954
  C:29F9H         LINE#         955
  C:29FAH         LINE#         956
  C:29FBH         LINE#         957
  C:29FDH         LINE#         958
  C:29FEH         LINE#         959
  C:29FFH         LINE#         960
  C:2A01H         LINE#         961
  C:2A02H         LINE#         962
  C:2A03H         LINE#         963
  C:2A04H         LINE#         966
  C:2A07H         LINE#         967
  C:2A08H         LINE#         968
  C:2A09H         LINE#         969
  C:2A0AH         LINE#         970
  C:2A0CH         LINE#         971
  C:2A0DH         LINE#         972
  C:2A0EH         LINE#         973
  C:2A10H         LINE#         974
  C:2A11H         LINE#         975
  C:2A12H         LINE#         976
  C:2A13H         LINE#         979
  C:2A16H         LINE#         980
  C:2A17H         LINE#         981
  C:2A18H         LINE#         982
  C:2A19H         LINE#         983
  C:2A1BH         LINE#         984
  C:2A1CH         LINE#         985
  C:2A1DH         LINE#         986
  C:2A1FH         LINE#         987
  C:2A20H         LINE#         988
  C:2A21H         LINE#         989
  C:2A22H         LINE#         996
  C:2A25H         LINE#         997
  C:2A26H         LINE#         998
  C:2A27H         LINE#         999
  C:2A28H         LINE#         1000
  C:2A2AH         LINE#         1001
  C:2A2BH         LINE#         1002
  C:2A2CH         LINE#         1003
  C:2A2DH         LINE#         1006
  C:2A30H         LINE#         1007
  C:2A31H         LINE#         1008
  C:2A32H         LINE#         1009
  C:2A33H         LINE#         1010
  C:2A35H         LINE#         1011
  C:2A36H         LINE#         1012
  C:2A37H         LINE#         1013
  C:2A38H         LINE#         1016
  C:2A3BH         LINE#         1017
  C:2A3CH         LINE#         1018
  C:2A3DH         LINE#         1019
  C:2A3EH         LINE#         1020
  C:2A40H         LINE#         1021
  C:2A41H         LINE#         1022
  C:2A42H         LINE#         1023
BL51 BANKED LINKER/LOCATER V6.22                                                      05/14/2019  21:59:46  PAGE 18


  C:2A43H         LINE#         1026
  C:2A46H         LINE#         1027
  C:2A47H         LINE#         1028
  C:2A48H         LINE#         1029
  C:2A49H         LINE#         1030
  C:2A4BH         LINE#         1031
  C:2A4CH         LINE#         1032
  C:2A4DH         LINE#         1033
  C:2A4EH         LINE#         1037
  C:2A51H         LINE#         1038
  C:2A52H         LINE#         1039
  C:2A53H         LINE#         1040
  C:2A54H         LINE#         1041
  C:2A56H         LINE#         1042
  C:2A57H         LINE#         1043
  C:2A58H         LINE#         1044
  C:2A59H         LINE#         1047
  C:2A5CH         LINE#         1048
  C:2A5DH         LINE#         1049
  C:2A5EH         LINE#         1050
  C:2A5FH         LINE#         1051
  C:2A61H         LINE#         1052
  C:2A62H         LINE#         1053
  C:2A63H         LINE#         1054
  C:2A64H         LINE#         1057
  C:2A67H         LINE#         1058
  C:2A68H         LINE#         1059
  C:2A69H         LINE#         1060
  C:2A6AH         LINE#         1061
  C:2A6CH         LINE#         1062
  C:2A6DH         LINE#         1063
  C:2A6EH         LINE#         1064
  C:2A6FH         LINE#         1067
  C:2A72H         LINE#         1068
  C:2A73H         LINE#         1069
  C:2A74H         LINE#         1070
  C:2A75H         LINE#         1071
  C:2A77H         LINE#         1072
  C:2A78H         LINE#         1073
  C:2A79H         LINE#         1074
  C:2A7AH         LINE#         1078
  C:2A7DH         LINE#         1079
  C:2A7EH         LINE#         1080
  C:2A7FH         LINE#         1081
  C:2A80H         LINE#         1082
  C:2A82H         LINE#         1083
  C:2A83H         LINE#         1084
  C:2A84H         LINE#         1085
  C:2A85H         LINE#         1088
  C:2A88H         LINE#         1089
  C:2A89H         LINE#         1090
  C:2A8AH         LINE#         1091
  C:2A8BH         LINE#         1092
  C:2A8DH         LINE#         1093
  C:2A8EH         LINE#         1094
  C:2A8FH         LINE#         1095
  C:2A90H         LINE#         1098
BL51 BANKED LINKER/LOCATER V6.22                                                      05/14/2019  21:59:46  PAGE 19


  C:2A93H         LINE#         1099
  C:2A94H         LINE#         1100
  C:2A95H         LINE#         1101
  C:2A96H         LINE#         1102
  C:2A98H         LINE#         1103
  C:2A99H         LINE#         1104
  C:2A9AH         LINE#         1105
  C:2A9BH         LINE#         1108
  C:2A9EH         LINE#         1109
  C:2A9FH         LINE#         1110
  C:2AA0H         LINE#         1111
  C:2AA1H         LINE#         1112
  C:2AA3H         LINE#         1113
  C:2AA4H         LINE#         1114
  C:2AA5H         LINE#         1115
  C:2AA6H         LINE#         1119
  C:2AA9H         LINE#         1120
  C:2AAAH         LINE#         1121
  C:2AABH         LINE#         1122
  C:2AACH         LINE#         1123
  C:2AAEH         LINE#         1124
  C:2AAFH         LINE#         1125
  C:2AB0H         LINE#         1126
  C:2AB1H         LINE#         1129
  C:2AB4H         LINE#         1130
  C:2AB5H         LINE#         1131
  C:2AB6H         LINE#         1132
  C:2AB7H         LINE#         1133
  C:2AB9H         LINE#         1134
  C:2ABAH         LINE#         1135
  C:2ABBH         LINE#         1136
  C:2ABCH         LINE#         1139
  C:2ABFH         LINE#         1140
  C:2AC0H         LINE#         1141
  C:2AC1H         LINE#         1142
  C:2AC2H         LINE#         1143
  C:2AC4H         LINE#         1144
  C:2AC5H         LINE#         1145
  C:2AC6H         LINE#         1146
  C:2AC7H         LINE#         1149
  C:2ACAH         LINE#         1150
  C:2ACBH         LINE#         1151
  C:2ACCH         LINE#         1152
  C:2ACDH         LINE#         1153
  C:2ACFH         LINE#         1154
  C:2AD0H         LINE#         1155
  C:2AD1H         LINE#         1156
  C:2AD2H         LINE#         1166
  C:2AD5H         LINE#         1167
  C:2AD6H         LINE#         1168
  C:2AD7H         LINE#         1169
  C:2AD8H         LINE#         1170
  C:2ADAH         LINE#         1171
  C:2ADBH         LINE#         1172
  C:2ADCH         LINE#         1173
  C:2ADEH         LINE#         1174
  C:2ADFH         LINE#         1175
BL51 BANKED LINKER/LOCATER V6.22                                                      05/14/2019  21:59:46  PAGE 20


  C:2AE0H         LINE#         1176
  C:2AE1H         LINE#         1179
  C:2AE4H         LINE#         1180
  C:2AE5H         LINE#         1181
  C:2AE6H         LINE#         1182
  C:2AE7H         LINE#         1183
  C:2AE9H         LINE#         1184
  C:2AEAH         LINE#         1185
  C:2AEBH         LINE#         1186
  C:2AEDH         LINE#         1187
  C:2AEEH         LINE#         1188
  C:2AEFH         LINE#         1189
  C:2AF0H         LINE#         1192
  C:2AF3H         LINE#         1193
  C:2AF4H         LINE#         1194
  C:2AF5H         LINE#         1195
  C:2AF6H         LINE#         1196
  C:2AF8H         LINE#         1197
  C:2AF9H         LINE#         1198
  C:2AFAH         LINE#         1199
  C:2AFBH         LINE#         1202
  C:2AFEH         LINE#         1203
  C:2AFFH         LINE#         1204
  C:2B00H         LINE#         1205
  C:2B01H         LINE#         1206
  C:2B03H         LINE#         1207
  C:2B04H         LINE#         1208
  C:2B05H         LINE#         1209
  C:2B06H         LINE#         1212
  C:2B09H         LINE#         1213
  C:2B0AH         LINE#         1214
  C:2B0BH         LINE#         1215
  C:2B0CH         LINE#         1216
  C:2B0EH         LINE#         1217
  C:2B0FH         LINE#         1218
  C:2B10H         LINE#         1219
  C:2B11H         LINE#         1222
  C:2B14H         LINE#         1223
  C:2B15H         LINE#         1224
  C:2B16H         LINE#         1225
  C:2B17H         LINE#         1226
  C:2B19H         LINE#         1227
  C:2B1AH         LINE#         1228
  C:2B1BH         LINE#         1229
  C:2B1CH         LINE#         1233
  C:2B1FH         LINE#         1234
  C:2B20H         LINE#         1235
  C:2B21H         LINE#         1236
  C:2B22H         LINE#         1237
  C:2B24H         LINE#         1238
  C:2B25H         LINE#         1239
  C:2B26H         LINE#         1240
  C:2B28H         LINE#         1241
  C:2B29H         LINE#         1242
  C:2B2AH         LINE#         1243
  C:2B2BH         LINE#         1246
  C:2B2EH         LINE#         1247
BL51 BANKED LINKER/LOCATER V6.22                                                      05/14/2019  21:59:46  PAGE 21


  C:2B2FH         LINE#         1248
  C:2B30H         LINE#         1249
  C:2B31H         LINE#         1250
  C:2B33H         LINE#         1251
  C:2B34H         LINE#         1252
  C:2B35H         LINE#         1253
  C:2B37H         LINE#         1254
  C:2B38H         LINE#         1255
  C:2B39H         LINE#         1256
  C:2B3AH         LINE#         1259
  C:2B3DH         LINE#         1260
  C:2B3EH         LINE#         1261
  C:2B3FH         LINE#         1262
  C:2B40H         LINE#         1263
  C:2B42H         LINE#         1264
  C:2B43H         LINE#         1265
  C:2B44H         LINE#         1266
  C:2B45H         LINE#         1269
  C:2B48H         LINE#         1270
  C:2B49H         LINE#         1271
  C:2B4AH         LINE#         1272
  C:2B4BH         LINE#         1273
  C:2B4DH         LINE#         1274
  C:2B4EH         LINE#         1275
  C:2B4FH         LINE#         1276
  C:2B50H         LINE#         1279
  C:2B53H         LINE#         1280
  C:2B54H         LINE#         1281
  C:2B55H         LINE#         1282
  C:2B56H         LINE#         1283
  C:2B58H         LINE#         1284
  C:2B59H         LINE#         1285
  C:2B5AH         LINE#         1286
  C:2B5BH         LINE#         1289
  C:2B5EH         LINE#         1290
  C:2B5FH         LINE#         1291
  C:2B60H         LINE#         1292
  C:2B61H         LINE#         1293
  C:2B63H         LINE#         1294
  C:2B64H         LINE#         1295
  C:2B65H         LINE#         1296
  C:2B66H         LINE#         1301
  C:2B69H         LINE#         1302
  C:2B6AH         LINE#         1303
  C:2B6BH         LINE#         1304
  C:2B6CH         LINE#         1305
  C:2B6EH         LINE#         1306
  C:2B6FH         LINE#         1307
  C:2B70H         LINE#         1308
  C:2B72H         LINE#         1309
  C:2B73H         LINE#         1310
  C:2B74H         LINE#         1311
  C:2B75H         LINE#         1314
  C:2B78H         LINE#         1315
  C:2B79H         LINE#         1316
  C:2B7AH         LINE#         1317
  C:2B7BH         LINE#         1318
BL51 BANKED LINKER/LOCATER V6.22                                                      05/14/2019  21:59:46  PAGE 22


  C:2B7DH         LINE#         1319
  C:2B7EH         LINE#         1320
  C:2B7FH         LINE#         1321
  C:2B81H         LINE#         1322
  C:2B82H         LINE#         1323
  C:2B83H         LINE#         1324
  C:2B84H         LINE#         1327
  C:2B87H         LINE#         1328
  C:2B88H         LINE#         1329
  C:2B89H         LINE#         1330
  C:2B8AH         LINE#         1331
  C:2B8CH         LINE#         1332
  C:2B8DH         LINE#         1333
  C:2B8EH         LINE#         1334
  C:2B8FH         LINE#         1337
  C:2B92H         LINE#         1338
  C:2B93H         LINE#         1339
  C:2B94H         LINE#         1340
  C:2B95H         LINE#         1341
  C:2B97H         LINE#         1342
  C:2B98H         LINE#         1343
  C:2B99H         LINE#         1344
  C:2B9AH         LINE#         1347
  C:2B9DH         LINE#         1348
  C:2B9EH         LINE#         1349
  C:2B9FH         LINE#         1350
  C:2BA0H         LINE#         1351
  C:2BA2H         LINE#         1352
  C:2BA3H         LINE#         1353
  C:2BA4H         LINE#         1354
  C:2BA5H         LINE#         1357
  C:2BA8H         LINE#         1358
  C:2BA9H         LINE#         1359
  C:2BAAH         LINE#         1360
  C:2BABH         LINE#         1361
  C:2BADH         LINE#         1362
  C:2BAEH         LINE#         1363
  C:2BAFH         LINE#         1364
  C:2BB0H         LINE#         1369
  C:2BB3H         LINE#         1370
  C:2BB4H         LINE#         1371
  C:2BB5H         LINE#         1372
  C:2BB6H         LINE#         1373
  C:2BB8H         LINE#         1374
  C:2BB9H         LINE#         1375
  C:2BBAH         LINE#         1376
  C:2BBCH         LINE#         1377
  C:2BBDH         LINE#         1378
  C:2BBEH         LINE#         1379
  C:2BBFH         LINE#         1382
  C:2BC2H         LINE#         1383
  C:2BC3H         LINE#         1384
  C:2BC4H         LINE#         1385
  C:2BC5H         LINE#         1386
  C:2BC7H         LINE#         1387
  C:2BC8H         LINE#         1388
  C:2BC9H         LINE#         1389
BL51 BANKED LINKER/LOCATER V6.22                                                      05/14/2019  21:59:46  PAGE 23


  C:2BCBH         LINE#         1390
  C:2BCCH         LINE#         1391
  C:2BCDH         LINE#         1392
  C:2BCEH         LINE#         1395
  C:2BD1H         LINE#         1396
  C:2BD2H         LINE#         1397
  C:2BD3H         LINE#         1398
  C:2BD4H         LINE#         1399
  C:2BD6H         LINE#         1400
  C:2BD7H         LINE#         1401
  C:2BD8H         LINE#         1402
  C:2BD9H         LINE#         1405
  C:2BDCH         LINE#         1406
  C:2BDDH         LINE#         1407
  C:2BDEH         LINE#         1408
  C:2BDFH         LINE#         1409
  C:2BE1H         LINE#         1410
  C:2BE2H         LINE#         1411
  C:2BE3H         LINE#         1412
  C:2BE4H         LINE#         1415
  C:2BE7H         LINE#         1416
  C:2BE8H         LINE#         1417
  C:2BE9H         LINE#         1418
  C:2BEAH         LINE#         1419
  C:2BECH         LINE#         1420
  C:2BEDH         LINE#         1421
  C:2BEEH         LINE#         1422
  C:2BEFH         LINE#         1425
  C:2BF2H         LINE#         1426
  C:2BF3H         LINE#         1427
  C:2BF4H         LINE#         1428
  C:2BF5H         LINE#         1429
  C:2BF7H         LINE#         1430
  C:2BF8H         LINE#         1431
  C:2BF9H         LINE#         1432
  C:2BFAH         LINE#         1471
  C:2BFDH         LINE#         1472
  C:2BFEH         LINE#         1473
  C:2BFFH         LINE#         1474
  C:2C00H         LINE#         1475
  C:2C02H         LINE#         1476
  C:2C03H         LINE#         1477
  C:2C04H         LINE#         1478
  C:2C05H         LINE#         1481
  C:2C08H         LINE#         1482
  C:2C09H         LINE#         1483
  C:2C0AH         LINE#         1484
  C:2C0BH         LINE#         1485
  C:2C0DH         LINE#         1486
  C:2C0EH         LINE#         1487
  C:2C0FH         LINE#         1488
  C:2C11H         LINE#         1489
  C:2C12H         LINE#         1490
  C:2C13H         LINE#         1491
  C:2C14H         LINE#         1494
  C:2C17H         LINE#         1495
  C:2C18H         LINE#         1496
BL51 BANKED LINKER/LOCATER V6.22                                                      05/14/2019  21:59:46  PAGE 24


  C:2C19H         LINE#         1497
  C:2C1AH         LINE#         1498
  C:2C1CH         LINE#         1499
  C:2C1DH         LINE#         1500
  C:2C1EH         LINE#         1501
  C:2C1FH         LINE#         1505
  C:2C22H         LINE#         1506
  C:2C23H         LINE#         1507
  C:2C24H         LINE#         1508
  C:2C25H         LINE#         1509
  C:2C27H         LINE#         1510
  C:2C28H         LINE#         1511
  C:2C29H         LINE#         1512
  C:2C2AH         LINE#         1515
  C:2C2DH         LINE#         1516
  C:2C2EH         LINE#         1517
  C:2C2FH         LINE#         1518
  C:2C30H         LINE#         1519
  C:2C32H         LINE#         1520
  C:2C33H         LINE#         1521
  C:2C34H         LINE#         1522
  C:2C36H         LINE#         1523
  C:2C37H         LINE#         1524
  C:2C38H         LINE#         1525
  C:2C39H         LINE#         1528
  C:2C3CH         LINE#         1529
  C:2C3DH         LINE#         1530
  C:2C3EH         LINE#         1531
  C:2C3FH         LINE#         1532
  C:2C41H         LINE#         1533
  C:2C42H         LINE#         1534
  C:2C43H         LINE#         1535
  C:2C44H         LINE#         1539
  C:2C47H         LINE#         1540
  C:2C48H         LINE#         1541
  C:2C49H         LINE#         1542
  C:2C4AH         LINE#         1543
  C:2C4CH         LINE#         1544
  C:2C4DH         LINE#         1545
  C:2C4EH         LINE#         1546
  C:2C4FH         LINE#         1549
  C:2C52H         LINE#         1550
  C:2C53H         LINE#         1551
  C:2C54H         LINE#         1552
  C:2C55H         LINE#         1553
  C:2C57H         LINE#         1554
  C:2C58H         LINE#         1555
  C:2C59H         LINE#         1556
  C:2C5BH         LINE#         1557
  C:2C5CH         LINE#         1558
  C:2C5DH         LINE#         1559
  C:2C5EH         LINE#         1562
  C:2C61H         LINE#         1563
  C:2C62H         LINE#         1564
  C:2C63H         LINE#         1565
  C:2C64H         LINE#         1566
  C:2C66H         LINE#         1567
BL51 BANKED LINKER/LOCATER V6.22                                                      05/14/2019  21:59:46  PAGE 25


  C:2C67H         LINE#         1568
  C:2C68H         LINE#         1569
  C:2C69H         LINE#         1573
  C:2C6CH         LINE#         1574
  C:2C6DH         LINE#         1575
  C:2C6EH         LINE#         1576
  C:2C6FH         LINE#         1577
  C:2C71H         LINE#         1578
  C:2C72H         LINE#         1579
  C:2C73H         LINE#         1580
  C:2C74H         LINE#         1583
  C:2C77H         LINE#         1584
  C:2C78H         LINE#         1585
  C:2C79H         LINE#         1586
  C:2C7AH         LINE#         1587
  C:2C7CH         LINE#         1588
  C:2C7DH         LINE#         1589
  C:2C7EH         LINE#         1590
  C:2C80H         LINE#         1591
  C:2C81H         LINE#         1592
  C:2C82H         LINE#         1593
  C:2C83H         LINE#         1596
  C:2C86H         LINE#         1597
  C:2C87H         LINE#         1598
  C:2C88H         LINE#         1599
  C:2C89H         LINE#         1600
  C:2C8BH         LINE#         1601
  C:2C8CH         LINE#         1602
  C:2C8DH         LINE#         1603
  C:2C8EH         LINE#         1616
  C:2C91H         LINE#         1617
  C:2C92H         LINE#         1618
  C:2C93H         LINE#         1619
  C:2C94H         LINE#         1620
  C:2C96H         LINE#         1621
  C:2C97H         LINE#         1624
  C:2C9AH         LINE#         1625
  C:2C9BH         LINE#         1626
  C:2C9CH         LINE#         1627
  C:2C9DH         LINE#         1628
  C:2C9FH         LINE#         1629
  C:2CA0H         LINE#         1632
  C:2CA3H         LINE#         1633
  C:2CA4H         LINE#         1634
  C:2CA5H         LINE#         1635
  C:2CA6H         LINE#         1636
  C:2CA8H         LINE#         1637
  C:2CA9H         LINE#         1640
  C:2CACH         LINE#         1641
  C:2CADH         LINE#         1642
  C:2CAEH         LINE#         1643
  C:2CAFH         LINE#         1644
  C:2CB1H         LINE#         1645
  C:2CB2H         LINE#         1649
  C:2CB5H         LINE#         1650
  C:2CB6H         LINE#         1651
  C:2CB7H         LINE#         1652
BL51 BANKED LINKER/LOCATER V6.22                                                      05/14/2019  21:59:46  PAGE 26


  C:2CB8H         LINE#         1653
  C:2CBAH         LINE#         1654
  C:2CBBH         LINE#         1657
  C:2CBEH         LINE#         1658
  C:2CBFH         LINE#         1659
  C:2CC0H         LINE#         1660
  C:2CC1H         LINE#         1661
  C:2CC3H         LINE#         1662
  C:2CC4H         LINE#         1665
  C:2CC7H         LINE#         1666
  C:2CC8H         LINE#         1667
  C:2CC9H         LINE#         1668
  C:2CCAH         LINE#         1669
  C:2CCCH         LINE#         1670
  C:2CCDH         LINE#         1673
  C:2CD0H         LINE#         1674
  C:2CD1H         LINE#         1675
  C:2CD2H         LINE#         1676
  C:2CD3H         LINE#         1677
  C:2CD5H         LINE#         1678
  C:2CD6H         LINE#         1692
  C:2CD9H         LINE#         1693
  C:2CDAH         LINE#         1694
  C:2CDBH         LINE#         1695
  C:2CDCH         LINE#         1696
  C:2CDEH         LINE#         1697
  C:2CDFH         LINE#         1698
  C:2CE0H         LINE#         1699
  C:2CE1H         LINE#         1702
  C:2CE4H         LINE#         1703
  C:2CE5H         LINE#         1704
  C:2CE6H         LINE#         1705
  C:2CE7H         LINE#         1706
  C:2CE9H         LINE#         1707
  C:2CEAH         LINE#         1708
  C:2CEBH         LINE#         1709
  C:2CECH         LINE#         1713
  C:2CEFH         LINE#         1714
  C:2CF0H         LINE#         1715
  C:2CF1H         LINE#         1716
  C:2CF2H         LINE#         1717
  C:2CF4H         LINE#         1718
  C:2CF5H         LINE#         1719
  C:2CF6H         LINE#         1720
  C:2CF7H         LINE#         1723
  C:2CFAH         LINE#         1724
  C:2CFBH         LINE#         1725
  C:2CFCH         LINE#         1726
  C:2CFDH         LINE#         1727
  C:2CFFH         LINE#         1728
  C:2D00H         LINE#         1729
  C:2D01H         LINE#         1730
  C:2D02H         LINE#         1734
  C:2D05H         LINE#         1735
  C:2D06H         LINE#         1736
  C:2D07H         LINE#         1737
  C:2D08H         LINE#         1738
BL51 BANKED LINKER/LOCATER V6.22                                                      05/14/2019  21:59:46  PAGE 27


  C:2D0AH         LINE#         1739
  C:2D0BH         LINE#         1740
  C:2D0CH         LINE#         1741
  C:2D0DH         LINE#         1744
  C:2D10H         LINE#         1745
  C:2D11H         LINE#         1746
  C:2D12H         LINE#         1747
  C:2D13H         LINE#         1748
  C:2D15H         LINE#         1749
  C:2D16H         LINE#         1750
  C:2D17H         LINE#         1751
  C:2D18H         LINE#         1755
  C:2D1BH         LINE#         1756
  C:2D1CH         LINE#         1757
  C:2D1DH         LINE#         1758
  C:2D1EH         LINE#         1759
  C:2D20H         LINE#         1760
  C:2D21H         LINE#         1761
  C:2D22H         LINE#         1762
  C:2D23H         LINE#         1765
  C:2D26H         LINE#         1766
  C:2D27H         LINE#         1767
  C:2D28H         LINE#         1768
  C:2D29H         LINE#         1769
  C:2D2BH         LINE#         1770
  C:2D2CH         LINE#         1771
  C:2D2DH         LINE#         1772
  C:2D2EH         LINE#         1776
  C:2D31H         LINE#         1777
  C:2D32H         LINE#         1778
  C:2D33H         LINE#         1779
  C:2D34H         LINE#         1780
  C:2D36H         LINE#         1781
  C:2D37H         LINE#         1782
  C:2D38H         LINE#         1783
  C:2D39H         LINE#         1786
  C:2D3CH         LINE#         1787
  C:2D3DH         LINE#         1788
  C:2D3EH         LINE#         1789
  C:2D3FH         LINE#         1790
  C:2D41H         LINE#         1791
  C:2D42H         LINE#         1792
  C:2D43H         LINE#         1793
  C:2D44H         LINE#         1797
  C:2D47H         LINE#         1798
  C:2D48H         LINE#         1799
  C:2D49H         LINE#         1800
  C:2D4AH         LINE#         1801
  C:2D4CH         LINE#         1802
  C:2D4DH         LINE#         1803
  C:2D4EH         LINE#         1804
  C:2D4FH         LINE#         1807
  C:2D52H         LINE#         1808
  C:2D53H         LINE#         1809
  C:2D54H         LINE#         1810
  C:2D55H         LINE#         1811
  C:2D57H         LINE#         1812
BL51 BANKED LINKER/LOCATER V6.22                                                      05/14/2019  21:59:46  PAGE 28


  C:2D58H         LINE#         1813
  C:2D59H         LINE#         1814
  C:2D5AH         LINE#         1818
  C:2D5DH         LINE#         1819
  C:2D5EH         LINE#         1820
  C:2D5FH         LINE#         1821
  C:2D60H         LINE#         1822
  C:2D62H         LINE#         1823
  C:2D63H         LINE#         1824
  C:2D64H         LINE#         1825
  C:2D65H         LINE#         1828
  C:2D68H         LINE#         1829
  C:2D69H         LINE#         1830
  C:2D6AH         LINE#         1831
  C:2D6BH         LINE#         1832
  C:2D6DH         LINE#         1833
  C:2D6EH         LINE#         1834
  C:2D6FH         LINE#         1835
  C:2D70H         LINE#         1840
  C:2D73H         LINE#         1841
  C:2D74H         LINE#         1842
  C:2D75H         LINE#         1843
  C:2D76H         LINE#         1844
  C:2D78H         LINE#         1845
  C:2D79H         LINE#         1846
  C:2D7AH         LINE#         1847
  C:2D7BH         LINE#         1850
  C:2D7EH         LINE#         1851
  C:2D7FH         LINE#         1852
  C:2D80H         LINE#         1853
  C:2D81H         LINE#         1854
  C:2D83H         LINE#         1855
  C:2D84H         LINE#         1856
  C:2D85H         LINE#         1857
  C:2D86H         LINE#         1876
  C:2D89H         LINE#         1877
  C:2D8AH         LINE#         1878
  C:2D8BH         LINE#         1879
  C:2D8CH         LINE#         1880
  C:2D8EH         LINE#         1881
  C:2D8FH         LINE#         1882
  C:2D90H         LINE#         1883
  C:2D91H         LINE#         1886
  C:2D94H         LINE#         1887
  C:2D95H         LINE#         1888
  C:2D96H         LINE#         1889
  C:2D97H         LINE#         1890
  C:2D99H         LINE#         1891
  C:2D9AH         LINE#         1892
  C:2D9BH         LINE#         1893
  C:2D9DH         LINE#         1894
  C:2D9EH         LINE#         1895
  C:2D9FH         LINE#         1896
  C:2DA0H         LINE#         1899
  C:2DA3H         LINE#         1900
  C:2DA4H         LINE#         1901
  C:2DA5H         LINE#         1902
BL51 BANKED LINKER/LOCATER V6.22                                                      05/14/2019  21:59:46  PAGE 29


  C:2DA6H         LINE#         1903
  C:2DA8H         LINE#         1904
  C:2DA9H         LINE#         1905
  C:2DAAH         LINE#         1906
  C:2DABH         LINE#         1909
  C:2DAEH         LINE#         1910
  C:2DAFH         LINE#         1911
  C:2DB0H         LINE#         1912
  C:2DB1H         LINE#         1913
  C:2DB3H         LINE#         1914
  C:2DB4H         LINE#         1915
  C:2DB5H         LINE#         1916
  C:2DB7H         LINE#         1917
  C:2DB8H         LINE#         1918
  C:2DB9H         LINE#         1919
  C:2DBAH         LINE#         1922
  C:2DBDH         LINE#         1923
  C:2DBEH         LINE#         1924
  C:2DBFH         LINE#         1925
  C:2DC0H         LINE#         1926
  C:2DC2H         LINE#         1927
  C:2DC3H         LINE#         1928
  C:2DC4H         LINE#         1929
  C:2DC5H         LINE#         1932
  C:2DC8H         LINE#         1933
  C:2DC9H         LINE#         1934
  C:2DCAH         LINE#         1935
  C:2DCBH         LINE#         1936
  C:2DCDH         LINE#         1937
  C:2DCEH         LINE#         1938
  C:2DCFH         LINE#         1939
  C:2DD1H         LINE#         1940
  C:2DD2H         LINE#         1941
  C:2DD3H         LINE#         1942
  C:2DD4H         LINE#         1946
  C:2DD7H         LINE#         1947
  C:2DD8H         LINE#         1948
  C:2DD9H         LINE#         1949
  C:2DDAH         LINE#         1950
  C:2DDCH         LINE#         1951
  C:2DDDH         LINE#         1952
  C:2DDEH         LINE#         1953
  C:2DDFH         LINE#         1956
  C:2DE2H         LINE#         1957
  C:2DE3H         LINE#         1958
  C:2DE4H         LINE#         1959
  C:2DE5H         LINE#         1960
  C:2DE7H         LINE#         1961
  C:2DE8H         LINE#         1962
  C:2DE9H         LINE#         1963
  C:2DEBH         LINE#         1964
  C:2DECH         LINE#         1965
  C:2DEDH         LINE#         1966
  C:2DEEH         LINE#         1969
  C:2DF1H         LINE#         1970
  C:2DF2H         LINE#         1971
  C:2DF3H         LINE#         1972
BL51 BANKED LINKER/LOCATER V6.22                                                      05/14/2019  21:59:46  PAGE 30


  C:2DF4H         LINE#         1973
  C:2DF6H         LINE#         1974
  C:2DF7H         LINE#         1975
  C:2DF8H         LINE#         1976
  C:2DF9H         LINE#         1979
  C:2DFCH         LINE#         1980
  C:2DFDH         LINE#         1981
  C:2DFEH         LINE#         1982
  C:2DFFH         LINE#         1983
  C:2E01H         LINE#         1984
  C:2E02H         LINE#         1985
  C:2E03H         LINE#         1986
  C:2E05H         LINE#         1987
  C:2E06H         LINE#         1988
  C:2E07H         LINE#         1989
  C:2E08H         LINE#         1992
  C:2E0BH         LINE#         1993
  C:2E0CH         LINE#         1994
  C:2E0DH         LINE#         1995
  C:2E0EH         LINE#         1996
  C:2E10H         LINE#         1997
  C:2E11H         LINE#         1998
  C:2E12H         LINE#         1999
  C:2E13H         LINE#         2002
  C:2E16H         LINE#         2003
  C:2E17H         LINE#         2004
  C:2E18H         LINE#         2005
  C:2E19H         LINE#         2006
  C:2E1BH         LINE#         2007
  C:2E1CH         LINE#         2008
  C:2E1DH         LINE#         2009
  C:2E1FH         LINE#         2010
  C:2E20H         LINE#         2011
  C:2E21H         LINE#         2012
  C:2E22H         LINE#         2016
  C:2E25H         LINE#         2017
  C:2E26H         LINE#         2018
  C:2E27H         LINE#         2019
  C:2E28H         LINE#         2020
  C:2E2AH         LINE#         2021
  C:2E2BH         LINE#         2022
  C:2E2CH         LINE#         2023
  C:2E2DH         LINE#         2026
  C:2E30H         LINE#         2027
  C:2E31H         LINE#         2028
  C:2E32H         LINE#         2029
  C:2E33H         LINE#         2030
  C:2E35H         LINE#         2031
  C:2E36H         LINE#         2032
  C:2E37H         LINE#         2033
  C:2E39H         LINE#         2034
  C:2E3AH         LINE#         2035
  C:2E3BH         LINE#         2036
  C:2E3CH         LINE#         2039
  C:2E3FH         LINE#         2040
  C:2E40H         LINE#         2041
  C:2E41H         LINE#         2042
BL51 BANKED LINKER/LOCATER V6.22                                                      05/14/2019  21:59:46  PAGE 31


  C:2E42H         LINE#         2043
  C:2E44H         LINE#         2044
  C:2E45H         LINE#         2045
  C:2E46H         LINE#         2046
  C:2E47H         LINE#         2049
  C:2E4AH         LINE#         2050
  C:2E4BH         LINE#         2051
  C:2E4CH         LINE#         2052
  C:2E4DH         LINE#         2053
  C:2E4FH         LINE#         2054
  C:2E50H         LINE#         2055
  C:2E51H         LINE#         2056
  C:2E53H         LINE#         2057
  C:2E54H         LINE#         2058
  C:2E55H         LINE#         2059
  C:2E56H         LINE#         2062
  C:2E59H         LINE#         2063
  C:2E5AH         LINE#         2064
  C:2E5BH         LINE#         2065
  C:2E5CH         LINE#         2066
  C:2E5EH         LINE#         2067
  C:2E5FH         LINE#         2068
  C:2E60H         LINE#         2069
  C:2E61H         LINE#         2072
  C:2E64H         LINE#         2073
  C:2E65H         LINE#         2074
  C:2E66H         LINE#         2075
  C:2E67H         LINE#         2076
  C:2E69H         LINE#         2077
  C:2E6AH         LINE#         2078
  C:2E6BH         LINE#         2079
  C:2E6DH         LINE#         2080
  C:2E6EH         LINE#         2081
  C:2E6FH         LINE#         2082
  C:2E70H         LINE#         2086
  C:2E73H         LINE#         2087
  C:2E74H         LINE#         2088
  C:2E75H         LINE#         2089
  C:2E76H         LINE#         2090
  C:2E78H         LINE#         2091
  C:2E79H         LINE#         2092
  C:2E7AH         LINE#         2093
  C:2E7BH         LINE#         2096
  C:2E7EH         LINE#         2097
  C:2E7FH         LINE#         2098
  C:2E80H         LINE#         2099
  C:2E81H         LINE#         2100
  C:2E83H         LINE#         2101
  C:2E84H         LINE#         2102
  C:2E85H         LINE#         2103
  C:2E87H         LINE#         2104
  C:2E88H         LINE#         2105
  C:2E89H         LINE#         2106
  C:2E8AH         LINE#         2109
  C:2E8DH         LINE#         2110
  C:2E8EH         LINE#         2111
  C:2E8FH         LINE#         2112
BL51 BANKED LINKER/LOCATER V6.22                                                      05/14/2019  21:59:46  PAGE 32


  C:2E90H         LINE#         2113
  C:2E92H         LINE#         2114
  C:2E93H         LINE#         2115
  C:2E94H         LINE#         2116
  C:2E95H         LINE#         2119
  C:2E98H         LINE#         2120
  C:2E99H         LINE#         2121
  C:2E9AH         LINE#         2122
  C:2E9BH         LINE#         2123
  C:2E9DH         LINE#         2124
  C:2E9EH         LINE#         2125
  C:2E9FH         LINE#         2126
  C:2EA1H         LINE#         2127
  C:2EA2H         LINE#         2128
  C:2EA3H         LINE#         2129
  C:2EA4H         LINE#         2132
  C:2EA7H         LINE#         2133
  C:2EA8H         LINE#         2134
  C:2EA9H         LINE#         2135
  C:2EAAH         LINE#         2136
  C:2EACH         LINE#         2137
  C:2EADH         LINE#         2138
  C:2EAEH         LINE#         2139
  C:2EAFH         LINE#         2142
  C:2EB2H         LINE#         2143
  C:2EB3H         LINE#         2144
  C:2EB4H         LINE#         2145
  C:2EB5H         LINE#         2146
  C:2EB7H         LINE#         2147
  C:2EB8H         LINE#         2148
  C:2EB9H         LINE#         2149
  C:2EBBH         LINE#         2150
  C:2EBCH         LINE#         2151
  C:2EBDH         LINE#         2152
  C:2EBEH         LINE#         2160
  C:2EC1H         LINE#         2161
  C:2EC2H         LINE#         2162
  C:2EC3H         LINE#         2163
  C:2EC4H         LINE#         2164
  C:2EC6H         LINE#         2165
  C:2EC7H         LINE#         2166
  C:2EC8H         LINE#         2167
  C:2ECAH         LINE#         2168
  C:2ECBH         LINE#         2169
  C:2ECCH         LINE#         2170
  C:2ECDH         LINE#         2173
  C:2ED0H         LINE#         2174
  C:2ED1H         LINE#         2175
  C:2ED2H         LINE#         2176
  C:2ED3H         LINE#         2177
  C:2ED5H         LINE#         2178
  C:2ED6H         LINE#         2179
  C:2ED7H         LINE#         2180
  C:2ED9H         LINE#         2181
  C:2EDAH         LINE#         2182
  C:2EDBH         LINE#         2183
  C:2EDCH         LINE#         2186
BL51 BANKED LINKER/LOCATER V6.22                                                      05/14/2019  21:59:46  PAGE 33


  C:2EDFH         LINE#         2187
  C:2EE0H         LINE#         2188
  C:2EE1H         LINE#         2189
  C:2EE2H         LINE#         2190
  C:2EE4H         LINE#         2191
  C:2EE5H         LINE#         2192
  C:2EE6H         LINE#         2193
  C:2EE8H         LINE#         2194
  C:2EE9H         LINE#         2195
  C:2EEAH         LINE#         2196
  C:2EEBH         LINE#         2199
  C:2EEEH         LINE#         2200
  C:2EEFH         LINE#         2201
  C:2EF0H         LINE#         2202
  C:2EF1H         LINE#         2203
  C:2EF3H         LINE#         2204
  C:2EF4H         LINE#         2205
  C:2EF5H         LINE#         2206
  C:2EF7H         LINE#         2207
  C:2EF8H         LINE#         2208
  C:2EF9H         LINE#         2209
  C:2EFAH         LINE#         2212
  C:2EFDH         LINE#         2213
  C:2EFEH         LINE#         2214
  C:2EFFH         LINE#         2215
  C:2F00H         LINE#         2216
  C:2F02H         LINE#         2217
  C:2F03H         LINE#         2218
  C:2F04H         LINE#         2219
  C:2F05H         LINE#         2222
  C:2F08H         LINE#         2223
  C:2F09H         LINE#         2224
  C:2F0AH         LINE#         2225
  C:2F0BH         LINE#         2226
  C:2F0DH         LINE#         2227
  C:2F0EH         LINE#         2228
  C:2F0FH         LINE#         2229
  C:2F10H         LINE#         2233
  C:2F13H         LINE#         2234
  C:2F14H         LINE#         2235
  C:2F15H         LINE#         2236
  C:2F16H         LINE#         2237
  C:2F18H         LINE#         2238
  C:2F19H         LINE#         2239
  C:2F1AH         LINE#         2240
  C:2F1CH         LINE#         2241
  C:2F1DH         LINE#         2242
  C:2F1EH         LINE#         2243
  C:2F1FH         LINE#         2246
  C:2F22H         LINE#         2247
  C:2F23H         LINE#         2248
  C:2F24H         LINE#         2249
  C:2F25H         LINE#         2250
  C:2F27H         LINE#         2251
  C:2F28H         LINE#         2252
  C:2F29H         LINE#         2253
  C:2F2BH         LINE#         2254
BL51 BANKED LINKER/LOCATER V6.22                                                      05/14/2019  21:59:46  PAGE 34


  C:2F2CH         LINE#         2255
  C:2F2DH         LINE#         2256
  C:2F2EH         LINE#         2259
  C:2F31H         LINE#         2260
  C:2F32H         LINE#         2261
  C:2F33H         LINE#         2262
  C:2F34H         LINE#         2263
  C:2F36H         LINE#         2264
  C:2F37H         LINE#         2265
  C:2F38H         LINE#         2266
  C:2F3AH         LINE#         2267
  C:2F3BH         LINE#         2268
  C:2F3CH         LINE#         2269
  C:2F3DH         LINE#         2272
  C:2F40H         LINE#         2273
  C:2F41H         LINE#         2274
  C:2F42H         LINE#         2275
  C:2F43H         LINE#         2276
  C:2F45H         LINE#         2277
  C:2F46H         LINE#         2278
  C:2F47H         LINE#         2279
  C:2F49H         LINE#         2280
  C:2F4AH         LINE#         2281
  C:2F4BH         LINE#         2282
  C:2F4CH         LINE#         2285
  C:2F4FH         LINE#         2286
  C:2F50H         LINE#         2287
  C:2F51H         LINE#         2288
  C:2F52H         LINE#         2289
  C:2F54H         LINE#         2290
  C:2F55H         LINE#         2291
  C:2F56H         LINE#         2292
  C:2F57H         LINE#         2295
  C:2F5AH         LINE#         2296
  C:2F5BH         LINE#         2297
  C:2F5CH         LINE#         2298
  C:2F5DH         LINE#         2299
  C:2F5FH         LINE#         2300
  C:2F60H         LINE#         2301
  C:2F61H         LINE#         2302
  C:2F62H         LINE#         2306
  C:2F65H         LINE#         2307
  C:2F66H         LINE#         2308
  C:2F67H         LINE#         2309
  C:2F68H         LINE#         2310
  C:2F6AH         LINE#         2311
  C:2F6BH         LINE#         2312
  C:2F6CH         LINE#         2313
  C:2F6EH         LINE#         2314
  C:2F6FH         LINE#         2315
  C:2F70H         LINE#         2316
  C:2F71H         LINE#         2319
  C:2F74H         LINE#         2320
  C:2F75H         LINE#         2321
  C:2F76H         LINE#         2322
  C:2F77H         LINE#         2323
  C:2F79H         LINE#         2324
BL51 BANKED LINKER/LOCATER V6.22                                                      05/14/2019  21:59:46  PAGE 35


  C:2F7AH         LINE#         2325
  C:2F7BH         LINE#         2326
  C:2F7DH         LINE#         2327
  C:2F7EH         LINE#         2328
  C:2F7FH         LINE#         2329
  C:2F80H         LINE#         2332
  C:2F83H         LINE#         2333
  C:2F84H         LINE#         2334
  C:2F85H         LINE#         2335
  C:2F86H         LINE#         2336
  C:2F88H         LINE#         2337
  C:2F89H         LINE#         2338
  C:2F8AH         LINE#         2339
  C:2F8CH         LINE#         2340
  C:2F8DH         LINE#         2341
  C:2F8EH         LINE#         2342
  C:2F8FH         LINE#         2345
  C:2F92H         LINE#         2346
  C:2F93H         LINE#         2347
  C:2F94H         LINE#         2348
  C:2F95H         LINE#         2349
  C:2F97H         LINE#         2350
  C:2F98H         LINE#         2351
  C:2F99H         LINE#         2352
  C:2F9BH         LINE#         2353
  C:2F9CH         LINE#         2354
  C:2F9DH         LINE#         2355
  C:2F9EH         LINE#         2358
  C:2FA1H         LINE#         2359
  C:2FA2H         LINE#         2360
  C:2FA3H         LINE#         2361
  C:2FA4H         LINE#         2362
  C:2FA6H         LINE#         2363
  C:2FA7H         LINE#         2364
  C:2FA8H         LINE#         2365
  C:2FA9H         LINE#         2368
  C:2FACH         LINE#         2369
  C:2FADH         LINE#         2370
  C:2FAEH         LINE#         2371
  C:2FAFH         LINE#         2372
  C:2FB1H         LINE#         2373
  C:2FB2H         LINE#         2374
  C:2FB3H         LINE#         2375
  C:2FB4H         LINE#         2379
  C:2FB7H         LINE#         2380
  C:2FB8H         LINE#         2381
  C:2FB9H         LINE#         2382
  C:2FBAH         LINE#         2383
  C:2FBCH         LINE#         2384
  C:2FBDH         LINE#         2385
  C:2FBEH         LINE#         2386
  C:2FC0H         LINE#         2387
  C:2FC1H         LINE#         2388
  C:2FC2H         LINE#         2389
  C:2FC3H         LINE#         2392
  C:2FC6H         LINE#         2393
  C:2FC7H         LINE#         2394
BL51 BANKED LINKER/LOCATER V6.22                                                      05/14/2019  21:59:46  PAGE 36


  C:2FC8H         LINE#         2395
  C:2FC9H         LINE#         2396
  C:2FCBH         LINE#         2397
  C:2FCCH         LINE#         2398
  C:2FCDH         LINE#         2399
  C:2FCFH         LINE#         2400
  C:2FD0H         LINE#         2401
  C:2FD1H         LINE#         2402
  C:2FD2H         LINE#         2405
  C:2FD5H         LINE#         2406
  C:2FD6H         LINE#         2407
  C:2FD7H         LINE#         2408
  C:2FD8H         LINE#         2409
  C:2FDAH         LINE#         2410
  C:2FDBH         LINE#         2411
  C:2FDCH         LINE#         2412
  C:2FDEH         LINE#         2413
  C:2FDFH         LINE#         2414
  C:2FE0H         LINE#         2415
  C:2FE1H         LINE#         2418
  C:2FE4H         LINE#         2419
  C:2FE5H         LINE#         2420
  C:2FE6H         LINE#         2421
  C:2FE7H         LINE#         2422
  C:2FE9H         LINE#         2423
  C:2FEAH         LINE#         2424
  C:2FEBH         LINE#         2425
  C:2FEDH         LINE#         2426
  C:2FEEH         LINE#         2427
  C:2FEFH         LINE#         2428
  C:2FF0H         LINE#         2431
  C:2FF3H         LINE#         2432
  C:2FF4H         LINE#         2433
  C:2FF5H         LINE#         2434
  C:2FF6H         LINE#         2435
  C:2FF8H         LINE#         2436
  C:2FF9H         LINE#         2437
  C:2FFAH         LINE#         2438
  C:2FFBH         LINE#         2441
  C:2FFEH         LINE#         2442
  C:2FFFH         LINE#         2443
  C:3000H         LINE#         2444
  C:3001H         LINE#         2445
  C:3003H         LINE#         2446
  C:3004H         LINE#         2447
  C:3005H         LINE#         2448
  C:3006H         LINE#         2460
  C:3009H         LINE#         2461
  C:300CH         LINE#         2464
  C:300FH         LINE#         2465
  C:3012H         LINE#         2468
  C:3015H         LINE#         2469
  C:3018H         LINE#         2472
  C:301BH         LINE#         2473
  C:301EH         LINE#         2479
  C:3021H         LINE#         2480
  C:3024H         LINE#         2483
BL51 BANKED LINKER/LOCATER V6.22                                                      05/14/2019  21:59:46  PAGE 37


  C:3027H         LINE#         2484
  C:302AH         LINE#         2487
  C:302DH         LINE#         2488
  C:3030H         LINE#         2491
  C:3033H         LINE#         2492
  C:3036H         LINE#         2496
  C:3039H         LINE#         2497
  C:303CH         LINE#         2500
  C:303FH         LINE#         2501
  C:3042H         LINE#         2504
  C:3045H         LINE#         2505
  C:3048H         LINE#         2508
  C:304BH         LINE#         2509
  C:304EH         LINE#         2515
  C:3051H         LINE#         2516
  C:3052H         LINE#         2517
  C:3053H         LINE#         2518
  C:3054H         LINE#         2519
  C:3056H         LINE#         2520
  C:3057H         LINE#         2521
  C:3058H         LINE#         2522
  C:3059H         LINE#         2526
  C:305CH         LINE#         2529
  C:305FH         LINE#         2532
  C:3062H         LINE#         2535
  C:3065H         LINE#         2540
  C:3067H         LINE#         2543
  C:3069H         LINE#         2548
  C:3E24H         LINE#         2564
  C:3E27H         LINE#         2565
  C:3E28H         LINE#         2566
  C:3E29H         LINE#         2567
  C:3E2AH         LINE#         2568
  C:3E2CH         LINE#         2569
  C:3E2DH         LINE#         2570
  C:3E2EH         LINE#         2571
  C:3E30H         LINE#         2572
  C:3E31H         LINE#         2573
  C:3E32H         LINE#         2574
  C:3E33H         LINE#         2577
  C:3E36H         LINE#         2578
  C:3E37H         LINE#         2579
  C:3E38H         LINE#         2580
  C:3E39H         LINE#         2581
  C:3E3BH         LINE#         2582
  C:3E3CH         LINE#         2583
  C:3E3DH         LINE#         2584
  C:3E3FH         LINE#         2585
  C:3E40H         LINE#         2586
  C:3E41H         LINE#         2587
  C:3E42H         LINE#         2590
  C:3E45H         LINE#         2591
  C:3E46H         LINE#         2592
  C:3E47H         LINE#         2593
  C:3E48H         LINE#         2594
  C:3E4AH         LINE#         2595
  C:3E4BH         LINE#         2596
BL51 BANKED LINKER/LOCATER V6.22                                                      05/14/2019  21:59:46  PAGE 38


  C:3E4CH         LINE#         2597
  C:3E4EH         LINE#         2598
  C:3E4FH         LINE#         2599
  C:3E50H         LINE#         2600
  C:3E51H         LINE#         2603
  C:3E54H         LINE#         2604
  C:3E55H         LINE#         2605
  C:3E56H         LINE#         2606
  C:3E57H         LINE#         2607
  C:3E59H         LINE#         2608
  C:3E5AH         LINE#         2609
  C:3E5BH         LINE#         2610
  C:3E5DH         LINE#         2611
  C:3E5EH         LINE#         2612
  C:3E5FH         LINE#         2613
  C:3E60H         LINE#         2619
  C:3E63H         LINE#         2620
  C:3E64H         LINE#         2621
  C:3E65H         LINE#         2622
  C:3E66H         LINE#         2623
  C:3E68H         LINE#         2624
  C:3E69H         LINE#         2625
  C:3E6AH         LINE#         2626
  C:3E6CH         LINE#         2627
  C:3E6DH         LINE#         2628
  C:3E6EH         LINE#         2629
  C:3E6FH         LINE#         2632
  C:3E72H         LINE#         2633
  C:3E73H         LINE#         2634
  C:3E74H         LINE#         2635
  C:3E75H         LINE#         2636
  C:3E77H         LINE#         2637
  C:3E78H         LINE#         2638
  C:3E79H         LINE#         2639
  C:3E7BH         LINE#         2640
  C:3E7CH         LINE#         2641
  C:3E7DH         LINE#         2642
  C:3E7EH         LINE#         2645
  C:3E81H         LINE#         2646
  C:3E82H         LINE#         2647
  C:3E83H         LINE#         2648
  C:3E84H         LINE#         2649
  C:3E86H         LINE#         2650
  C:3E87H         LINE#         2651
  C:3E88H         LINE#         2652
  C:3E8AH         LINE#         2653
  C:3E8BH         LINE#         2654
  C:3E8CH         LINE#         2655
  C:3E8DH         LINE#         2658
  C:3E90H         LINE#         2659
  C:3E91H         LINE#         2660
  C:3E92H         LINE#         2661
  C:3E93H         LINE#         2662
  C:3E95H         LINE#         2663
  C:3E96H         LINE#         2664
  C:3E97H         LINE#         2665
  C:3E98H         LINE#         2671
BL51 BANKED LINKER/LOCATER V6.22                                                      05/14/2019  21:59:46  PAGE 39


  C:3E9BH         LINE#         2672
  C:3E9CH         LINE#         2673
  C:3E9DH         LINE#         2674
  C:3E9EH         LINE#         2675
  C:3EA0H         LINE#         2676
  C:3EA1H         LINE#         2677
  C:3EA2H         LINE#         2678
  C:3EA3H         LINE#         2681
  C:3EA6H         LINE#         2682
  C:3EA7H         LINE#         2683
  C:3EA8H         LINE#         2684
  C:3EA9H         LINE#         2685
  C:3EABH         LINE#         2686
  C:3EACH         LINE#         2687
  C:3EADH         LINE#         2688
  C:3EAEH         LINE#         2691
  C:3EB1H         LINE#         2692
  C:3EB2H         LINE#         2693
  C:3EB3H         LINE#         2694
  C:3EB4H         LINE#         2695
  C:3EB6H         LINE#         2696
  C:3EB7H         LINE#         2697
  C:3EB8H         LINE#         2698
  C:3EB9H         LINE#         2701
  C:3EBCH         LINE#         2702
  C:3EBDH         LINE#         2703
  C:3EBEH         LINE#         2704
  C:3EBFH         LINE#         2705
  C:3EC1H         LINE#         2706
  C:3EC2H         LINE#         2707
  C:3EC3H         LINE#         2708
  C:3EC4H         LINE#         2713
  C:3EC7H         LINE#         2714
  C:3EC8H         LINE#         2715
  C:3EC9H         LINE#         2716
  C:3ECAH         LINE#         2717
  C:3ECCH         LINE#         2718
  C:3ECDH         LINE#         2719
  C:3ECEH         LINE#         2720
  C:3ECFH         LINE#         2723
  C:3ED2H         LINE#         2724
  C:3ED3H         LINE#         2725
  C:3ED4H         LINE#         2726
  C:3ED5H         LINE#         2727
  C:3ED7H         LINE#         2728
  C:3ED8H         LINE#         2729
  C:3ED9H         LINE#         2730
  C:3EDAH         LINE#         2733
  C:3EDDH         LINE#         2734
  C:3EDEH         LINE#         2735
  C:3EDFH         LINE#         2736
  C:3EE0H         LINE#         2737
  C:3EE2H         LINE#         2738
  C:3EE3H         LINE#         2739
  C:3EE4H         LINE#         2740
  C:3EE5H         LINE#         2743
  C:3EE8H         LINE#         2744
BL51 BANKED LINKER/LOCATER V6.22                                                      05/14/2019  21:59:46  PAGE 40


  C:3EE9H         LINE#         2745
  C:3EEAH         LINE#         2746
  C:3EEBH         LINE#         2747
  C:3EEDH         LINE#         2748
  C:3EEEH         LINE#         2749
  C:3EEFH         LINE#         2750
  C:3EF0H         LINE#         2755
  C:3EF3H         LINE#         2756
  C:3EF4H         LINE#         2757
  C:3EF5H         LINE#         2758
  C:3EF6H         LINE#         2759
  C:3EF8H         LINE#         2760
  C:3EF9H         LINE#         2761
  C:3EFAH         LINE#         2762
  C:3EFBH         LINE#         2765
  C:3EFEH         LINE#         2766
  C:3EFFH         LINE#         2767
  C:3F00H         LINE#         2768
  C:3F01H         LINE#         2769
  C:3F03H         LINE#         2770
  C:3F04H         LINE#         2771
  C:3F05H         LINE#         2772
  C:3F06H         LINE#         2775
  C:3F09H         LINE#         2776
  C:3F0AH         LINE#         2777
  C:3F0BH         LINE#         2778
  C:3F0CH         LINE#         2779
  C:3F0EH         LINE#         2780
  C:3F0FH         LINE#         2781
  C:3F10H         LINE#         2782
  C:3F11H         LINE#         2785
  C:3F14H         LINE#         2786
  C:3F15H         LINE#         2787
  C:3F16H         LINE#         2788
  C:3F17H         LINE#         2789
  C:3F19H         LINE#         2790
  C:3F1AH         LINE#         2791
  C:3F1BH         LINE#         2792
  C:3F1CH         LINE#         2796
  C:3F1FH         LINE#         2797
  C:3F20H         LINE#         2798
  C:3F21H         LINE#         2799
  C:3F22H         LINE#         2800
  C:3F24H         LINE#         2801
  C:3F25H         LINE#         2802
  C:3F26H         LINE#         2803
  C:3F27H         LINE#         2807
  C:3F29H         LINE#         2810
  C:3F2BH         LINE#         2813
  C:3F2DH         LINE#         2816
  C:3F2FH         LINE#         2820
  C:4A47H         LINE#         2836
  C:4A4AH         LINE#         2839
  C:4A4CH         LINE#         2842
  C:4A4EH         LINE#         2845
  C:4A51H         LINE#         2846
  C:4A52H         LINE#         2847
BL51 BANKED LINKER/LOCATER V6.22                                                      05/14/2019  21:59:46  PAGE 41


  C:4A53H         LINE#         2848
  C:4A54H         LINE#         2849
  C:4A56H         LINE#         2850
  C:4A57H         LINE#         2851
  C:4A58H         LINE#         2852
  C:4A59H         LINE#         2855
  C:4A5CH         LINE#         2856
  C:4A5DH         LINE#         2857
  C:4A5EH         LINE#         2858
  C:4A5FH         LINE#         2859
  C:4A61H         LINE#         2860
  C:4A62H         LINE#         2861
  C:4A63H         LINE#         2862
  C:4A64H         LINE#         2866
  C:3A87H         LINE#         2885
  C:3A8AH         LINE#         2886
  C:3A8BH         LINE#         2887
  C:3A8CH         LINE#         2890
  C:3A8FH         LINE#         2891
  C:3A90H         LINE#         2892
  C:3A91H         LINE#         2895
  C:3A94H         LINE#         2896
  C:3A95H         LINE#         2897
  C:3A96H         LINE#         2900
  C:3A99H         LINE#         2901
  C:3A9BH         LINE#         2902
  C:3A9CH         LINE#         2905
  C:3A9FH         LINE#         2906
  C:3AA0H         LINE#         2907
  C:3AA1H         LINE#         2910
  C:3AA4H         LINE#         2911
  C:3AA5H         LINE#         2912
  C:3AA6H         LINE#         2916
  C:3AA9H         LINE#         2917
  C:3AAAH         LINE#         2918
  C:3AABH         LINE#         2921
  C:3AAEH         LINE#         2922
  C:3AAFH         LINE#         2923
  C:3AB0H         LINE#         2926
  C:3AB3H         LINE#         2927
  C:3AB4H         LINE#         2928
  C:3AB5H         LINE#         2931
  C:3AB8H         LINE#         2932
  C:3ABAH         LINE#         2933
  C:3ABBH         LINE#         2936
  C:3ABEH         LINE#         2937
  C:3ABFH         LINE#         2938
  C:3AC0H         LINE#         2941
  C:3AC3H         LINE#         2942
  C:3AC4H         LINE#         2943
  C:3AC5H         LINE#         2947
  C:3AC8H         LINE#         2948
  C:3AC9H         LINE#         2949
  C:3ACAH         LINE#         2952
  C:3ACDH         LINE#         2953
  C:3ACEH         LINE#         2954
  C:3ACFH         LINE#         2957
BL51 BANKED LINKER/LOCATER V6.22                                                      05/14/2019  21:59:46  PAGE 42


  C:3AD2H         LINE#         2958
  C:3AD3H         LINE#         2959
  C:3AD4H         LINE#         2962
  C:3AD7H         LINE#         2963
  C:3AD9H         LINE#         2964
  C:3ADAH         LINE#         2967
  C:3ADDH         LINE#         2968
  C:3ADEH         LINE#         2969
  C:3ADFH         LINE#         2972
  C:3AE2H         LINE#         2973
  C:3AE3H         LINE#         2974
  C:3AE4H         LINE#         2980
  C:3AE7H         LINE#         2981
  C:3AE8H         LINE#         2982
  C:3AE9H         LINE#         2983
  C:3AEAH         LINE#         2984
  C:3AECH         LINE#         2985
  C:3AEDH         LINE#         2986
  C:3AEEH         LINE#         2987
  C:3AEFH         LINE#         2990
  C:3AF2H         LINE#         2991
  C:3AF3H         LINE#         2992
  C:3AF4H         LINE#         2993
  C:3AF5H         LINE#         2994
  C:3AF7H         LINE#         2995
  C:3AF8H         LINE#         2996
  C:3AF9H         LINE#         2997
  C:3AFAH         LINE#         3000
  C:3AFDH         LINE#         3001
  C:3AFEH         LINE#         3002
  C:3AFFH         LINE#         3003
  C:3B00H         LINE#         3004
  C:3B02H         LINE#         3005
  C:3B03H         LINE#         3006
  C:3B04H         LINE#         3007
  C:3B05H         LINE#         3010
  C:3B08H         LINE#         3011
  C:3B09H         LINE#         3012
  C:3B0AH         LINE#         3013
  C:3B0BH         LINE#         3014
  C:3B0DH         LINE#         3015
  C:3B0EH         LINE#         3016
  C:3B0FH         LINE#         3017
  C:3B10H         LINE#         3022
  C:3B13H         LINE#         3023
  C:3B14H         LINE#         3024
  C:3B15H         LINE#         3025
  C:3B16H         LINE#         3026
  C:3B18H         LINE#         3027
  C:3B19H         LINE#         3028
  C:3B1AH         LINE#         3029
  C:3B1CH         LINE#         3030
  C:3B1DH         LINE#         3031
  C:3B1EH         LINE#         3032
  C:3B1FH         LINE#         3033
  C:3B22H         LINE#         3034
  C:3B23H         LINE#         3035
BL51 BANKED LINKER/LOCATER V6.22                                                      05/14/2019  21:59:46  PAGE 43


  C:3B24H         LINE#         3036
  C:3B25H         LINE#         3037
  C:3B27H         LINE#         3038
  C:3B28H         LINE#         3039
  C:3B29H         LINE#         3040
  C:3B2AH         LINE#         3041
  C:3B2DH         LINE#         3042
  C:3B2EH         LINE#         3043
  C:3B2FH         LINE#         3044
  C:3B30H         LINE#         3045
  C:3B32H         LINE#         3046
  C:3B33H         LINE#         3047
  C:3B34H         LINE#         3048
  C:3B35H         LINE#         3049
  C:3B38H         LINE#         3050
  C:3B39H         LINE#         3051
  C:3B3AH         LINE#         3052
  C:3B3BH         LINE#         3053
  C:3B3DH         LINE#         3054
  C:3B3EH         LINE#         3055
  C:3B3FH         LINE#         3056
  C:3B40H         LINE#         3057
  C:3B43H         LINE#         3058
  C:3B44H         LINE#         3059
  C:3B45H         LINE#         3060
  C:3B46H         LINE#         3061
  C:3B48H         LINE#         3062
  C:3B49H         LINE#         3063
  C:3B4AH         LINE#         3064
  C:3B4BH         LINE#         3067
  C:3B4EH         LINE#         3068
  C:3B4FH         LINE#         3069
  C:3B50H         LINE#         3070
  C:3B51H         LINE#         3071
  C:3B53H         LINE#         3072
  C:3B54H         LINE#         3073
  C:3B55H         LINE#         3074
  C:3B57H         LINE#         3075
  C:3B58H         LINE#         3076
  C:3B59H         LINE#         3077
  C:3B5AH         LINE#         3078
  C:3B5DH         LINE#         3079
  C:3B5EH         LINE#         3080
  C:3B5FH         LINE#         3081
  C:3B60H         LINE#         3082
  C:3B62H         LINE#         3083
  C:3B63H         LINE#         3084
  C:3B64H         LINE#         3085
  C:3B65H         LINE#         3086
  C:3B68H         LINE#         3087
  C:3B69H         LINE#         3088
  C:3B6AH         LINE#         3089
  C:3B6BH         LINE#         3090
  C:3B6DH         LINE#         3091
  C:3B6EH         LINE#         3092
  C:3B6FH         LINE#         3093
  C:3B70H         LINE#         3094
BL51 BANKED LINKER/LOCATER V6.22                                                      05/14/2019  21:59:46  PAGE 44


  C:3B73H         LINE#         3095
  C:3B74H         LINE#         3096
  C:3B75H         LINE#         3097
  C:3B76H         LINE#         3098
  C:3B78H         LINE#         3099
  C:3B79H         LINE#         3100
  C:3B7AH         LINE#         3101
  C:3B7BH         LINE#         3102
  C:3B7EH         LINE#         3103
  C:3B7FH         LINE#         3104
  C:3B80H         LINE#         3105
  C:3B81H         LINE#         3106
  C:3B83H         LINE#         3107
  C:3B84H         LINE#         3108
  C:3B85H         LINE#         3109
  C:3B86H         LINE#         3112
  C:3B89H         LINE#         3113
  C:3B8AH         LINE#         3114
  C:3B8BH         LINE#         3115
  C:3B8CH         LINE#         3116
  C:3B8EH         LINE#         3117
  C:3B8FH         LINE#         3118
  C:3B90H         LINE#         3119
  C:3B91H         LINE#         3120
  C:3B94H         LINE#         3121
  C:3B95H         LINE#         3122
  C:3B96H         LINE#         3123
  C:3B97H         LINE#         3124
  C:3B99H         LINE#         3125
  C:3B9AH         LINE#         3126
  C:3B9BH         LINE#         3127
  C:3B9CH         LINE#         3128
  C:3B9FH         LINE#         3129
  C:3BA0H         LINE#         3130
  C:3BA1H         LINE#         3131
  C:3BA2H         LINE#         3132
  C:3BA4H         LINE#         3133
  C:3BA5H         LINE#         3134
  C:3BA6H         LINE#         3135
  C:3BA7H         LINE#         3136
  C:3BAAH         LINE#         3137
  C:3BABH         LINE#         3138
  C:3BACH         LINE#         3139
  C:3BADH         LINE#         3140
  C:3BAFH         LINE#         3141
  C:3BB0H         LINE#         3142
  C:3BB1H         LINE#         3143
  C:3BB2H         LINE#         3144
  C:3BB5H         LINE#         3145
  C:3BB6H         LINE#         3146
  C:3BB7H         LINE#         3147
  C:3BB8H         LINE#         3148
  C:3BBAH         LINE#         3149
  C:3BBBH         LINE#         3150
  C:3BBCH         LINE#         3151
  C:3BBDH         LINE#         3154
  C:3BC0H         LINE#         3155
BL51 BANKED LINKER/LOCATER V6.22                                                      05/14/2019  21:59:46  PAGE 45


  C:3BC1H         LINE#         3156
  C:3BC2H         LINE#         3157
  C:3BC3H         LINE#         3158
  C:3BC5H         LINE#         3159
  C:3BC6H         LINE#         3160
  C:3BC7H         LINE#         3161
  C:3BC8H         LINE#         3162
  C:3BCBH         LINE#         3163
  C:3BCCH         LINE#         3164
  C:3BCDH         LINE#         3165
  C:3BCEH         LINE#         3166
  C:3BD0H         LINE#         3167
  C:3BD1H         LINE#         3168
  C:3BD2H         LINE#         3169
  C:3BD3H         LINE#         3170
  C:3BD6H         LINE#         3171
  C:3BD7H         LINE#         3172
  C:3BD8H         LINE#         3173
  C:3BD9H         LINE#         3174
  C:3BDBH         LINE#         3175
  C:3BDCH         LINE#         3176
  C:3BDDH         LINE#         3177
  C:3BDEH         LINE#         3178
  C:3BE1H         LINE#         3179
  C:3BE2H         LINE#         3180
  C:3BE3H         LINE#         3181
  C:3BE4H         LINE#         3182
  C:3BE6H         LINE#         3183
  C:3BE7H         LINE#         3184
  C:3BE8H         LINE#         3185
  C:3BE9H         LINE#         3186
  C:3BECH         LINE#         3187
  C:3BEDH         LINE#         3188
  C:3BEEH         LINE#         3189
  C:3BEFH         LINE#         3190
  C:3BF1H         LINE#         3191
  C:3BF2H         LINE#         3192
  C:3BF3H         LINE#         3193
  C:3BF4H         LINE#         3198
  C:49E3H         LINE#         3211
  C:49E6H         LINE#         3212
  C:49E8H         LINE#         3213
  C:49E9H         LINE#         3216
  C:49ECH         LINE#         3217
  C:49EDH         LINE#         3218
  C:49EEH         LINE#         3221
  C:49F1H         LINE#         3224
  C:49F4H         LINE#         3227
  C:49F7H         LINE#         3231
  C:49FAH         LINE#         3234
  C:49FDH         LINE#         3239
  C:49FFH         LINE#         3242
  C:4A01H         LINE#         3245
  C:4A03H         LINE#         3248
  C:4A05H         LINE#         3252
  C:4962H         LINE#         3286
  C:4965H         LINE#         3287
BL51 BANKED LINKER/LOCATER V6.22                                                      05/14/2019  21:59:46  PAGE 46


  C:4966H         LINE#         3288
  C:4967H         LINE#         3291
  C:496AH         LINE#         3292
  C:496CH         LINE#         3293
  C:496DH         LINE#         3294
  C:496EH         LINE#         3295
  C:4970H         LINE#         3296
  C:4971H         LINE#         3300
  C:4974H         LINE#         3301
  C:4975H         LINE#         3302
  C:4976H         LINE#         3303
  C:4977H         LINE#         3304
  C:4979H         LINE#         3305
  C:497AH         LINE#         3306
  C:497BH         LINE#         3307
  C:497CH         LINE#         3310
  C:497FH         LINE#         3311
  C:4980H         LINE#         3312
  C:4981H         LINE#         3313
  C:4982H         LINE#         3314
  C:4984H         LINE#         3315
  C:4985H         LINE#         3316
  C:4986H         LINE#         3317
  C:4987H         LINE#         3320
  C:498AH         LINE#         3323
  C:498CH         LINE#         3326
  C:498EH         LINE#         3332
  C:498FH         LINE#         3346
  C:4992H         LINE#         3347
  C:4993H         LINE#         3348
  C:4994H         LINE#         3351
  C:4997H         LINE#         3352
  C:4999H         LINE#         3353
  C:499AH         LINE#         3354
  C:499BH         LINE#         3355
  C:499DH         LINE#         3356
  C:499EH         LINE#         3360
  C:49A1H         LINE#         3361
  C:49A2H         LINE#         3362
  C:49A3H         LINE#         3363
  C:49A4H         LINE#         3364
  C:49A6H         LINE#         3365
  C:49A7H         LINE#         3366
  C:49A8H         LINE#         3367
  C:49A9H         LINE#         3370
  C:49ACH         LINE#         3371
  C:49ADH         LINE#         3372
  C:49AEH         LINE#         3373
  C:49AFH         LINE#         3374
  C:49B1H         LINE#         3375
  C:49B2H         LINE#         3376
  C:49B3H         LINE#         3377
  C:49B4H         LINE#         3380
  C:49B7H         LINE#         3383
  C:49B9H         LINE#         3386
  C:49BBH         LINE#         3390
  C:48F6H         LINE#         3403
BL51 BANKED LINKER/LOCATER V6.22                                                      05/14/2019  21:59:46  PAGE 47


  C:48F9H         LINE#         3404
  C:48FAH         LINE#         3405
  C:48FBH         LINE#         3408
  C:48FEH         LINE#         3409
  C:4900H         LINE#         3410
  C:4901H         LINE#         3411
  C:4902H         LINE#         3412
  C:4904H         LINE#         3413
  C:4905H         LINE#         3417
  C:4908H         LINE#         3418
  C:4909H         LINE#         3419
  C:490AH         LINE#         3420
  C:490BH         LINE#         3421
  C:490DH         LINE#         3422
  C:490EH         LINE#         3423
  C:490FH         LINE#         3424
  C:4910H         LINE#         3427
  C:4913H         LINE#         3428
  C:4914H         LINE#         3429
  C:4915H         LINE#         3430
  C:4916H         LINE#         3431
  C:4918H         LINE#         3432
  C:4919H         LINE#         3433
  C:491AH         LINE#         3434
  C:491BH         LINE#         3437
  C:491EH         LINE#         3438
  C:491FH         LINE#         3439
  C:4920H         LINE#         3440
  C:4921H         LINE#         3441
  C:4923H         LINE#         3442
  C:4924H         LINE#         3443
  C:4925H         LINE#         3444
  C:4926H         LINE#         3449
  C:4928H         LINE#         3452
  C:492AH         LINE#         3455
  C:492CH         LINE#         3459
  C:492DH         LINE#         3472
  C:4930H         LINE#         3473
  C:4931H         LINE#         3474
  C:4932H         LINE#         3477
  C:4935H         LINE#         3478
  C:4937H         LINE#         3479
  C:4938H         LINE#         3480
  C:4939H         LINE#         3481
  C:493BH         LINE#         3482
  C:493CH         LINE#         3486
  C:493FH         LINE#         3487
  C:4940H         LINE#         3488
  C:4941H         LINE#         3489
  C:4942H         LINE#         3490
  C:4944H         LINE#         3491
  C:4945H         LINE#         3492
  C:4946H         LINE#         3493
  C:4947H         LINE#         3496
  C:494AH         LINE#         3497
  C:494BH         LINE#         3498
  C:494CH         LINE#         3499
BL51 BANKED LINKER/LOCATER V6.22                                                      05/14/2019  21:59:46  PAGE 48


  C:494DH         LINE#         3500
  C:494FH         LINE#         3501
  C:4950H         LINE#         3502
  C:4951H         LINE#         3503
  C:4952H         LINE#         3506
  C:4955H         LINE#         3507
  C:4956H         LINE#         3508
  C:4957H         LINE#         3509
  C:4958H         LINE#         3510
  C:495AH         LINE#         3511
  C:495BH         LINE#         3512
  C:495CH         LINE#         3513
  C:495DH         LINE#         3519
  C:495FH         LINE#         3522
  C:4961H         LINE#         3526
  C:44F3H         LINE#         3540
  C:44F6H         LINE#         3541
  C:44F8H         LINE#         3542
  C:44F9H         LINE#         3545
  C:44FCH         LINE#         3546
  C:44FEH         LINE#         3547
  C:44FFH         LINE#         3552
  C:4502H         LINE#         3553
  C:4504H         LINE#         3554
  C:4505H         LINE#         3557
  C:4508H         LINE#         3558
  C:450AH         LINE#         3559
  C:450BH         LINE#         3563
  C:450CH         LINE#         3565
  C:450DH         LINE#         3567
  C:450EH         LINE#         3569
  C:450FH         LINE#         3571
  C:4510H         LINE#         3573
  C:4511H         LINE#         3575
  C:4512H         LINE#         3577
  C:4513H         LINE#         3579
  C:4514H         LINE#         3581
  C:4515H         LINE#         3583
  C:4516H         LINE#         3585
  C:4517H         LINE#         3587
  C:4518H         LINE#         3589
  C:4519H         LINE#         3591
  C:451AH         LINE#         3593
  C:451BH         LINE#         3595
  C:451CH         LINE#         3597
  C:451DH         LINE#         3599
  C:451EH         LINE#         3601
  C:451FH         LINE#         3603
  C:4520H         LINE#         3605
  C:4521H         LINE#         3607
  C:4522H         LINE#         3609
  C:4523H         LINE#         3611
  C:4524H         LINE#         3613
  C:4525H         LINE#         3615
  C:4526H         LINE#         3617
  C:4527H         LINE#         3619
  C:4528H         LINE#         3621
BL51 BANKED LINKER/LOCATER V6.22                                                      05/14/2019  21:59:46  PAGE 49


  C:4529H         LINE#         3623
  C:452AH         LINE#         3625
  C:452BH         LINE#         3627
  C:452CH         LINE#         3658
  C:452FH         LINE#         3659
  C:4531H         LINE#         3660
  C:4532H         LINE#         3665
  C:4535H         LINE#         3666
  C:4536H         LINE#         3667
  C:4537H         LINE#         3671
  C:4538H         LINE#         3673
  C:4539H         LINE#         3675
  C:453AH         LINE#         3677
  C:453BH         LINE#         3679
  C:453CH         LINE#         3681
  C:453DH         LINE#         3683
  C:453EH         LINE#         3685
  C:453FH         LINE#         3687
  C:4540H         LINE#         3689
  C:4541H         LINE#         3691
  C:4542H         LINE#         3693
  C:4543H         LINE#         3695
  C:4544H         LINE#         3697
  C:4545H         LINE#         3699
  C:4546H         LINE#         3701
  C:4547H         LINE#         3703
  C:4548H         LINE#         3705
  C:4549H         LINE#         3707
  C:454AH         LINE#         3709
  C:454BH         LINE#         3711
  C:454CH         LINE#         3713
  C:454DH         LINE#         3715
  C:454EH         LINE#         3717
  C:454FH         LINE#         3719
  C:4550H         LINE#         3721
  C:4551H         LINE#         3723
  C:4552H         LINE#         3725
  C:4553H         LINE#         3727
  C:4554H         LINE#         3729
  C:4555H         LINE#         3731
  C:4556H         LINE#         3733
  C:4557H         LINE#         3738
  C:4A7FH         LINE#         3758
  C:4A82H         LINE#         3761
  C:4A85H         LINE#         3794
  C:4A88H         LINE#         3799
  C:4A8BH         LINE#         3803
  C:4AA1H         LINE#         3816
  C:4AA4H         LINE#         3820
  C:4AA7H         LINE#         3823
  C:4AAAH         LINE#         3827
  C:4830H         LINE#         3842
  C:4833H         LINE#         3843
  C:4834H         LINE#         3844
  C:4835H         LINE#         3845
  C:4836H         LINE#         3846
  C:4838H         LINE#         3847
BL51 BANKED LINKER/LOCATER V6.22                                                      05/14/2019  21:59:46  PAGE 50


  C:4839H         LINE#         3848
  C:483AH         LINE#         3849
  C:483BH         LINE#         3852
  C:483EH         LINE#         3853
  C:483FH         LINE#         3854
  C:4840H         LINE#         3855
  C:4841H         LINE#         3856
  C:4843H         LINE#         3857
  C:4844H         LINE#         3858
  C:4845H         LINE#         3859
  C:4846H         LINE#         3862
  C:4849H         LINE#         3863
  C:484AH         LINE#         3864
  C:484BH         LINE#         3865
  C:484CH         LINE#         3866
  C:484EH         LINE#         3867
  C:484FH         LINE#         3868
  C:4850H         LINE#         3869
  C:4851H         LINE#         3872
  C:4854H         LINE#         3873
  C:4855H         LINE#         3874
  C:4856H         LINE#         3875
  C:4857H         LINE#         3876
  C:4859H         LINE#         3877
  C:485AH         LINE#         3878
  C:485BH         LINE#         3879
  C:485CH         LINE#         3882
  C:485FH         LINE#         3883
  C:4860H         LINE#         3884
  C:4861H         LINE#         3885
  C:4862H         LINE#         3886
  C:4864H         LINE#         3887
  C:4865H         LINE#         3888
  C:4866H         LINE#         3889
  C:4867H         LINE#         3892
  C:486AH         LINE#         3893
  C:486BH         LINE#         3894
  C:486CH         LINE#         3895
  C:486DH         LINE#         3896
  C:486FH         LINE#         3897
  C:4870H         LINE#         3898
  C:4871H         LINE#         3899
  C:4872H         LINE#         3903
  -------         ENDMOD        INITIAL

  -------         MODULE        INTERRUPT
  C:0000H         SYMBOL        _ICE_DUMMY_
  D:00CEH         PUBLIC        P2ETCLR
  C:4196H         PUBLIC        Comp234Interrupt
  D:00DEH         PUBLIC        P3ETCLR
  D:0080H         PUBLIC        P0
  D:00F6H         PUBLIC        P4ETCLR
  D:0090H         PUBLIC        P1
  D:00A0H         PUBLIC        P2
  D:00B0H         PUBLIC        P3
  C:49BCH         PUBLIC        TIMER0Interrupt
  C:2006H         PUBLIC        TIMER1Interrupt
BL51 BANKED LINKER/LOCATER V6.22                                                      05/14/2019  21:59:46  PAGE 51


  C:377AH         PUBLIC        TIMER3Interrupt
  C:4483H         PUBLIC        TIMER4Interrupt
  C:439AH         PUBLIC        TIMER5Interrupt
  D:00A8H         PUBLIC        IEN0
  C:4103H         PUBLIC        TIMER6Interrupt
  D:00B8H         PUBLIC        IEN1
  C:406FH         PUBLIC        EXT1234Interrupt
  B:00C0H.0       PUBLIC        IADC
  C:4229H         PUBLIC        I2CInterrupt
  C:48B5H         PUBLIC        Comp1Interrupt
  B:00C0H.1       PUBLIC        IEX2
  B:00C0H.2       PUBLIC        IEX3
  B:00C0H.3       PUBLIC        IEX4
  B:00C0H.4       PUBLIC        IEX5
  C:4873H         PUBLIC        ADCInterrupt
  B:00C0H.5       PUBLIC        IEX6
  C:4670H         PUBLIC        LDV33Interrupt
  C:4615H         PUBLIC        LDV18Interrupt
  C:431FH         PUBLIC        eFlashInterrupt
  B:0080H.4       PUBLIC        P04
  D:0088H         PUBLIC        TCON
  B:00A0H.6       PUBLIC        P26
  C:45BAH         PUBLIC        RTCInterrupt
  B:0088H.1       PUBLIC        IE0
  B:0088H.3       PUBLIC        IE1
  C:42A4H         PUBLIC        SPIInterrupt
  C:4A8CH         PUBLIC        UART1Interrupt
  C:2026H         PUBLIC        UART2Interrupt
  C:4411H         PUBLIC        ePWM123Interrupt
  D:0093H         PUBLIC        BPCTRL
  B:0088H.5       PUBLIC        TF0
  B:0098H.0       PUBLIC        RI0
  B:0088H.7       PUBLIC        TF1
  B:0098H.1       PUBLIC        TI0
  D:00F9H         PUBLIC        INT_REG1
  D:00FAH         PUBLIC        INT_REG2
  D:00FDH         PUBLIC        INT_REG3
  D:00FEH         PUBLIC        INT_REG4
  C:4558H         PUBLIC        ePWM4Interrupt
  D:0098H         PUBLIC        S0CON
  D:009BH         PUBLIC        S1CON
  D:00C8H         PUBLIC        T2CON
  D:00B5H         PUBLIC        P1ETFLG
  D:00CDH         PUBLIC        P2ETFLG
  D:00DDH         PUBLIC        P3ETFLG
  D:00F5H         PUBLIC        P4ETFLG
  D:00D8H         PUBLIC        WDCON
  D:00C0H         PUBLIC        IRCON
  D:00B6H         PUBLIC        P1ETCLR
  -------         PROC          EXT1234INTERRUPT
  C:406FH         LINE#         37
  C:4078H         LINE#         40
  C:4087H         LINE#         41
  C:4087H         LINE#         43
  C:408AH         LINE#         44
  C:408AH         LINE#         47
  C:4099H         LINE#         48
BL51 BANKED LINKER/LOCATER V6.22                                                      05/14/2019  21:59:46  PAGE 52


  C:4099H         LINE#         49
  C:409BH         LINE#         50
  C:409EH         LINE#         51
  C:409EH         LINE#         54
  C:40ADH         LINE#         55
  C:40ADH         LINE#         56
  C:40B0H         LINE#         57
  C:40B0H         LINE#         60
  C:40BFH         LINE#         61
  C:40BFH         LINE#         63
  C:40C2H         LINE#         64
  C:40C2H         LINE#         66
  C:40FAH         LINE#         67
  C:40FCH         LINE#         69
  -------         ENDPROC       EXT1234INTERRUPT
  -------         PROC          TIMER0INTERRUPT
  C:49BCH         LINE#         80
  C:49C9H         LINE#         83
  C:49CBH         LINE#         84
  C:49CDH         LINE#         87
  C:49D8H         LINE#         91
  -------         ENDPROC       TIMER0INTERRUPT
  -------         PROC          TIMER1INTERRUPT
  C:2006H         LINE#         93
  C:2006H         LINE#         97
  C:2008H         LINE#         98
  -------         ENDPROC       TIMER1INTERRUPT
  -------         PROC          TIMER3INTERRUPT
  C:377AH         LINE#         100
  C:3797H         LINE#         104
  C:37A8H         LINE#         105
  C:37A8H         LINE#         106
  C:37AEH         LINE#         109
  C:37B9H         LINE#         110
  C:37B9H         LINE#         112
  C:37CCH         LINE#         113
  C:37CCH         LINE#         115
  C:37DDH         LINE#         116
  C:37E6H         LINE#         117
  C:37E6H         LINE#         119
  C:37F1H         LINE#         120
  C:3805H         LINE#         121
  C:380AH         LINE#         123
  C:380DH         LINE#         125
  C:380DH         LINE#         128
  C:3815H         LINE#         130
  C:3815H         LINE#         132
  C:3844H         LINE#         134
  C:3846H         LINE#         136
  C:3846H         LINE#         137
  C:385AH         LINE#         139
  C:38A3H         LINE#         143
  C:38A3H         LINE#         145
  C:38AEH         LINE#         148
  C:38AEH         LINE#         149
  C:38B9H         LINE#         150
  C:38B9H         LINE#         152
BL51 BANKED LINKER/LOCATER V6.22                                                      05/14/2019  21:59:46  PAGE 53


  C:38E8H         LINE#         154
  C:38EAH         LINE#         155
  -------         ENDPROC       TIMER3INTERRUPT
  -------         PROC          TIMER4INTERRUPT
  C:4483H         LINE#         157
  C:4490H         LINE#         162
  C:449BH         LINE#         164
  C:449EH         LINE#         167
  C:44A0H         LINE#         169
  C:44E6H         LINE#         170
  C:44E8H         LINE#         174
  -------         ENDPROC       TIMER4INTERRUPT
  -------         PROC          TIMER5INTERRUPT
  C:439AH         LINE#         176
  C:43A9H         LINE#         179
  C:43B4H         LINE#         180
  C:43BFH         LINE#         183
  C:43C1H         LINE#         184
  C:4402H         LINE#         185
  C:4404H         LINE#         188
  -------         ENDPROC       TIMER5INTERRUPT
  -------         PROC          TIMER6INTERRUPT
  C:4103H         LINE#         189
  C:4112H         LINE#         192
  C:411DH         LINE#         193
  C:4128H         LINE#         195
  C:4185H         LINE#         196
  C:4187H         LINE#         197
  C:4189H         LINE#         199
  -------         ENDPROC       TIMER6INTERRUPT
  -------         PROC          EPWM123INTERRUPT
  C:4411H         LINE#         206
  C:441AH         LINE#         208
  C:4429H         LINE#         209
  C:4429H         LINE#         213
  C:442CH         LINE#         214
  C:442CH         LINE#         217
  C:443BH         LINE#         218
  C:443BH         LINE#         224
  C:443EH         LINE#         225
  C:443EH         LINE#         228
  C:444DH         LINE#         229
  C:444DH         LINE#         231
  C:4450H         LINE#         232
  C:4450H         LINE#         234
  C:447AH         LINE#         235
  C:447CH         LINE#         237
  -------         ENDPROC       EPWM123INTERRUPT
  -------         PROC          EPWM4INTERRUPT
  C:4558H         LINE#         240
  C:4567H         LINE#         243
  C:456AH         LINE#         245
  C:45ABH         LINE#         246
  C:45ADH         LINE#         248
  -------         ENDPROC       EPWM4INTERRUPT
  -------         PROC          COMP1INTERRUPT
  C:48B5H         LINE#         256
BL51 BANKED LINKER/LOCATER V6.22                                                      05/14/2019  21:59:46  PAGE 54


  C:48C2H         LINE#         262
  C:48CDH         LINE#         264
  C:48E9H         LINE#         265
  C:48EBH         LINE#         266
  -------         ENDPROC       COMP1INTERRUPT
  -------         PROC          COMP234INTERRUPT
  C:4196H         LINE#         269
  C:41A3H         LINE#         274
  C:41B0H         LINE#         276
  C:41B0H         LINE#         280
  C:41BBH         LINE#         286
  C:41BBH         LINE#         288
  C:41CAH         LINE#         290
  C:41CAH         LINE#         292
  C:41D5H         LINE#         294
  C:41D5H         LINE#         296
  C:41E5H         LINE#         298
  C:41E5H         LINE#         300
  C:41F0H         LINE#         303
  C:41F0H         LINE#         305
  C:421CH         LINE#         306
  C:421EH         LINE#         308
  -------         ENDPROC       COMP234INTERRUPT
  -------         PROC          I2CINTERRUPT
  C:4229H         LINE#         314
  C:4238H         LINE#         319
  C:4295H         LINE#         320
  C:4297H         LINE#         321
  -------         ENDPROC       I2CINTERRUPT
  -------         PROC          SPIINTERRUPT
  C:42A4H         LINE#         323
  C:42B3H         LINE#         327
  C:4310H         LINE#         328
  C:4312H         LINE#         329
  -------         ENDPROC       SPIINTERRUPT
  -------         PROC          EFLASHINTERRUPT
  C:431FH         LINE#         331
  C:432EH         LINE#         335
  C:438BH         LINE#         336
  C:438DH         LINE#         337
  -------         ENDPROC       EFLASHINTERRUPT
  -------         PROC          RTCINTERRUPT
  C:45BAH         LINE#         342
  C:45C3H         LINE#         347
  C:45C6H         LINE#         348
  C:460CH         LINE#         349
  C:460EH         LINE#         352
  -------         ENDPROC       RTCINTERRUPT
  -------         PROC          LDV18INTERRUPT
  C:4615H         LINE#         355
  C:461EH         LINE#         358
  C:4621H         LINE#         359
  C:4667H         LINE#         360
  C:4669H         LINE#         363
  -------         ENDPROC       LDV18INTERRUPT
  -------         PROC          LDV33INTERRUPT
  C:4670H         LINE#         365
BL51 BANKED LINKER/LOCATER V6.22                                                      05/14/2019  21:59:46  PAGE 55


  C:4679H         LINE#         368
  C:467CH         LINE#         370
  C:46C2H         LINE#         371
  C:46C4H         LINE#         373
  -------         ENDPROC       LDV33INTERRUPT
  -------         PROC          UART1INTERRUPT
  C:4A8CH         LINE#         382
  C:4A8CH         LINE#         383
  C:4A8CH         LINE#         384
  C:4A8FH         LINE#         385
  C:4A8FH         LINE#         386
  C:4A91H         LINE#         387
  C:4A91H         LINE#         389
  C:4A94H         LINE#         390
  C:4A94H         LINE#         391
  C:4A96H         LINE#         392
  C:4A96H         LINE#         393
  -------         ENDPROC       UART1INTERRUPT
  -------         PROC          UART2INTERRUPT
  C:2026H         LINE#         395
  C:2028H         LINE#         398
  C:202DH         LINE#         399
  C:202DH         LINE#         400
  C:2030H         LINE#         405
  C:2030H         LINE#         408
  C:2035H         LINE#         409
  C:2035H         LINE#         410
  C:2038H         LINE#         411
  C:2038H         LINE#         412
  -------         ENDPROC       UART2INTERRUPT
  -------         PROC          ADCINTERRUPT
  C:4873H         LINE#         414
  C:4882H         LINE#         418
  C:488BH         LINE#         419
  C:488BH         LINE#         420
  C:4896H         LINE#         421
  C:4898H         LINE#         422
  C:4898H         LINE#         424
  C:48A8H         LINE#         427
  -------         ENDPROC       ADCINTERRUPT
  -------         ENDMOD        INTERRUPT

  -------         MODULE        MOTORLIB
  C:46CBH         SEGMENT       ?PR?_EE_WRITE?MOTORLIB
  D:0019H         SEGMENT       ?DT?_EE_WRITE?MOTORLIB
  C:4717H         SEGMENT       ?PR?_EE_READ?MOTORLIB
  D:001EH         SEGMENT       ?DT?_EE_READ?MOTORLIB
  D:0019H         PUBLIC        ?_EE_WRITE?BYTE
  C:4717H         PUBLIC        _EE_READ
  C:46CBH         PUBLIC        _EE_WRITE
  C:46CDH         SYMBOL        ?C0001
  C:46DDH         SYMBOL        ?C0002
  C:4702H         SYMBOL        ?C0003
  C:4711H         SYMBOL        ?C0004
  C:4716H         SYMBOL        ?C0005
  C:4719H         SYMBOL        ?C0006
  C:4729H         SYMBOL        ?C0007
BL51 BANKED LINKER/LOCATER V6.22                                                      05/14/2019  21:59:46  PAGE 56


  C:4740H         SYMBOL        ?C0008
  C:474EH         SYMBOL        ?C0009
  C:4761H         SYMBOL        ?C0010
  D:001EH         SYMBOL        ?_EE_READ?BYTE
  D:00E0H         SYMBOL        ACC
  D:00EFH         SYMBOL        ARCON
  D:00F0H         SYMBOL        B
  D:0093H         SYMBOL        BPCTRL
  D:0095H         SYMBOL        BREAKH
  D:0094H         SYMBOL        BREAKL
  D:00ABH         SYMBOL        BSHCTL
  D:00ACH         SYMBOL        BSHI
  D:00ACH         SYMBOL        BSHI_0
  D:00ADH         SYMBOL        BSHI_1
  D:00AEH         SYMBOL        BSHI_2
  D:00AFH         SYMBOL        BSHI_3
  D:00BCH         SYMBOL        BSHO
  D:00BCH         SYMBOL        BSHO_0
  D:00BDH         SYMBOL        BSHO_1
  D:00BEH         SYMBOL        BSHO_2
  D:00BFH         SYMBOL        BSHO_3
  D:008EH         SYMBOL        CKCON
  D:0091H         SYMBOL        CLK_DIV
  D:008FH         SYMBOL        CLK_PD_CON
  D:0083H         SYMBOL        DPH
  D:0085H         SYMBOL        DPH1
  D:0082H         SYMBOL        DPL
  D:0084H         SYMBOL        DPL1
  D:0092H         SYMBOL        DPS
  B:00B8H.0       SYMBOL        EADC
  B:00A8H.7       SYMBOL        EAL
  D:0019H         SYMBOL        EE_ADDR?040
  D:001EH         SYMBOL        EE_ADDR?142
  D:001AH         SYMBOL        EE_DATA?041
  B:00A8H.4       SYMBOL        ES
  B:00A8H.4       SYMBOL        ES0
  B:00A8H.1       SYMBOL        ET0
  B:00A8H.3       SYMBOL        ET1
  B:00A8H.0       SYMBOL        EX0
  B:00A8H.2       SYMBOL        EX1
  B:00B8H.1       SYMBOL        EX2
  B:00B8H.2       SYMBOL        EX3
  B:00B8H.3       SYMBOL        EX4
  B:00B8H.4       SYMBOL        EX5
  B:00B8H.5       SYMBOL        EX6
  B:00C8H.5       SYMBOL        I2FR
  B:00C8H.6       SYMBOL        I3FR
  B:00C0H.0       SYMBOL        IADC
  D:00A8H         SYMBOL        IE
  B:0088H.1       SYMBOL        IE0
  B:0088H.3       SYMBOL        IE1
  D:00A8H         SYMBOL        IEN0
  D:00B8H         SYMBOL        IEN1
  D:009AH         SYMBOL        IEN2
  B:00C0H.1       SYMBOL        IEX2
  B:00C0H.2       SYMBOL        IEX3
  B:00C0H.3       SYMBOL        IEX4
BL51 BANKED LINKER/LOCATER V6.22                                                      05/14/2019  21:59:46  PAGE 57


  B:00C0H.4       SYMBOL        IEX5
  B:00C0H.5       SYMBOL        IEX6
  D:00F9H         SYMBOL        INT_REG1
  D:00FAH         SYMBOL        INT_REG2
  D:00FDH         SYMBOL        INT_REG3
  D:00FEH         SYMBOL        INT_REG4
  D:00A9H         SYMBOL        IP0
  D:00B9H         SYMBOL        IP1
  D:00C0H         SYMBOL        IRCON
  B:0088H.0       SYMBOL        IT0
  B:0088H.2       SYMBOL        IT1
  D:00E9H         SYMBOL        MD0
  D:00EAH         SYMBOL        MD1
  D:00EBH         SYMBOL        MD2
  D:00ECH         SYMBOL        MD3
  D:00EDH         SYMBOL        MD4
  D:00EEH         SYMBOL        MD5
  D:00E8H         SYMBOL        MEM_CONFIG
  N:0000H         SYMBOL        MOTORLIB
  D:0080H         SYMBOL        P0
  B:0080H.0       SYMBOL        P00
  B:0080H.1       SYMBOL        P01
  B:0080H.2       SYMBOL        P02
  B:0080H.3       SYMBOL        P03
  B:0080H.4       SYMBOL        P04
  B:0080H.5       SYMBOL        P05
  B:0080H.6       SYMBOL        P06
  B:0080H.7       SYMBOL        P07
  D:0090H         SYMBOL        P1
  B:0090H.0       SYMBOL        P10
  B:0090H.1       SYMBOL        P11
  B:0090H.2       SYMBOL        P12
  B:0090H.3       SYMBOL        P13
  B:0090H.4       SYMBOL        P14
  B:0090H.5       SYMBOL        P15
  B:0090H.6       SYMBOL        P16
  B:0090H.7       SYMBOL        P17
  D:00B1H         SYMBOL        P1AQCSFRC
  D:00A7H         SYMBOL        P1AQSFRC
  D:00A3H         SYMBOL        P1CMPA
  D:00A4H         SYMBOL        P1CMPA_H
  D:00A3H         SYMBOL        P1CMPA_L
  D:00A5H         SYMBOL        P1CMPB
  D:00A6H         SYMBOL        P1CMPB_H
  D:00A5H         SYMBOL        P1CMPB_L
  D:00B6H         SYMBOL        P1ETCLR
  D:00B5H         SYMBOL        P1ETFLG
  D:00B7H         SYMBOL        P1ETFRC
  D:00A1H         SYMBOL        P1TBPRD
  D:00A2H         SYMBOL        P1TBPRD_H
  D:00A1H         SYMBOL        P1TBPRD_L
  D:00B3H         SYMBOL        P1TZCLR
  D:00B2H         SYMBOL        P1TZFLG
  D:00B4H         SYMBOL        P1TZFRC
  D:00A0H         SYMBOL        P2
  B:00A0H.0       SYMBOL        P20
  B:00A0H.1       SYMBOL        P21
BL51 BANKED LINKER/LOCATER V6.22                                                      05/14/2019  21:59:46  PAGE 58


  B:00A0H.2       SYMBOL        P22
  B:00A0H.3       SYMBOL        P23
  B:00A0H.4       SYMBOL        P24
  B:00A0H.5       SYMBOL        P25
  B:00A0H.6       SYMBOL        P26
  B:00A0H.7       SYMBOL        P27
  D:00C9H         SYMBOL        P2AQCSFRC
  D:00C7H         SYMBOL        P2AQSFRC
  D:00C3H         SYMBOL        P2CMPA
  D:00C4H         SYMBOL        P2CMPA_H
  D:00C3H         SYMBOL        P2CMPA_L
  D:00C5H         SYMBOL        P2CMPB
  D:00C6H         SYMBOL        P2CMPB_H
  D:00C5H         SYMBOL        P2CMPB_L
  D:00CEH         SYMBOL        P2ETCLR
  D:00CDH         SYMBOL        P2ETFLG
  D:00CFH         SYMBOL        P2ETFRC
  D:00C1H         SYMBOL        P2TBPRD
  D:00C2H         SYMBOL        P2TBPRD_H
  D:00C1H         SYMBOL        P2TBPRD_L
  D:00CBH         SYMBOL        P2TZCLR
  D:00CAH         SYMBOL        P2TZFLG
  D:00CCH         SYMBOL        P2TZFRC
  D:00B0H         SYMBOL        P3
  B:00B0H.0       SYMBOL        P30
  B:00B0H.1       SYMBOL        P31
  B:00B0H.2       SYMBOL        P32
  B:00B0H.3       SYMBOL        P33
  B:00B0H.4       SYMBOL        P34
  B:00B0H.5       SYMBOL        P35
  B:00B0H.6       SYMBOL        P36
  B:00B0H.7       SYMBOL        P37
  D:00D9H         SYMBOL        P3AQCSFRC
  D:00D7H         SYMBOL        P3AQSFRC
  D:00D3H         SYMBOL        P3CMPA
  D:00D4H         SYMBOL        P3CMPA_H
  D:00D3H         SYMBOL        P3CMPA_L
  D:00D5H         SYMBOL        P3CMPB
  D:00D6H         SYMBOL        P3CMPB_H
  D:00D5H         SYMBOL        P3CMPB_L
  D:00DEH         SYMBOL        P3ETCLR
  D:00DDH         SYMBOL        P3ETFLG
  D:00DFH         SYMBOL        P3ETFRC
  D:00D1H         SYMBOL        P3TBPRD
  D:00D2H         SYMBOL        P3TBPRD_H
  D:00D1H         SYMBOL        P3TBPRD_L
  D:00DBH         SYMBOL        P3TZCLR
  D:00DAH         SYMBOL        P3TZFLG
  D:00DCH         SYMBOL        P3TZFRC
  D:00F1H         SYMBOL        P4AQCSFRC
  D:00E7H         SYMBOL        P4AQSFRC
  D:00E3H         SYMBOL        P4CMPA
  D:00E4H         SYMBOL        P4CMPA_H
  D:00E3H         SYMBOL        P4CMPA_L
  D:00E5H         SYMBOL        P4CMPB
  D:00E6H         SYMBOL        P4CMPB_H
  D:00E5H         SYMBOL        P4CMPB_L
BL51 BANKED LINKER/LOCATER V6.22                                                      05/14/2019  21:59:46  PAGE 59


  D:00F6H         SYMBOL        P4ETCLR
  D:00F5H         SYMBOL        P4ETFLG
  D:00F7H         SYMBOL        P4ETFRC
  D:00E1H         SYMBOL        P4TBPRD
  D:00E2H         SYMBOL        P4TBPRD_H
  D:00E1H         SYMBOL        P4TBPRD_L
  D:00F3H         SYMBOL        P4TZCLR
  D:00F2H         SYMBOL        P4TZFLG
  D:00F4H         SYMBOL        P4TZFRC
  D:0087H         SYMBOL        PCON
  D:0097H         SYMBOL        POWER_CON
  D:00D0H         SYMBOL        PSW
  B:0098H.2       SYMBOL        RB80
  B:0098H.4       SYMBOL        REN0
  B:0098H.0       SYMBOL        RI
  B:0098H.0       SYMBOL        RI0
  D:0099H         SYMBOL        S0BUF
  D:0098H         SYMBOL        S0CON
  D:00BAH         SYMBOL        S0RELH
  D:00AAH         SYMBOL        S0RELL
  D:009CH         SYMBOL        S1BUF
  D:009BH         SYMBOL        S1CON
  D:00BBH         SYMBOL        S1RELH
  D:009DH         SYMBOL        S1RELL
  D:0099H         SYMBOL        SBUF
  B:0098H.7       SYMBOL        SM0
  B:0098H.6       SYMBOL        SM1
  B:0098H.5       SYMBOL        SM20
  D:0081H         SYMBOL        SP
  D:00F8H         SYMBOL        SRAM_CON
  B:00B8H.6       SYMBOL        SWDT
  D:00C8H         SYMBOL        T2CON
  B:0098H.3       SYMBOL        TB80
  D:0088H         SYMBOL        TCON
  B:0088H.5       SYMBOL        TF0
  B:0088H.7       SYMBOL        TF1
  D:008CH         SYMBOL        TH0
  D:008DH         SYMBOL        TH1
  B:0098H.1       SYMBOL        TI0
  D:008AH         SYMBOL        TL0
  D:008BH         SYMBOL        TL1
  D:0089H         SYMBOL        TMOD
  B:0088H.4       SYMBOL        TR0
  B:0088H.6       SYMBOL        TR1
  D:00D8H         SYMBOL        WDCON
  B:00D8H.7       SYMBOL        WDCON_7
  B:00A8H.6       SYMBOL        WDT
  D:0086H         SYMBOL        WDTREL
  C:46CBH         LINE#         293
  C:46CDH         LINE#         300
  C:46D0H         LINE#         301
  C:46D1H         LINE#         302
  C:46D2H         LINE#         303
  C:46D3H         LINE#         304
  C:46D4H         LINE#         305
  C:46D5H         LINE#         306
  C:46D6H         LINE#         307
BL51 BANKED LINKER/LOCATER V6.22                                                      05/14/2019  21:59:46  PAGE 60


  C:46D8H         LINE#         308
  C:46D9H         LINE#         309
  C:46DAH         LINE#         310
  C:46DDH         LINE#         314
  C:46E0H         LINE#         315
  C:46E2H         LINE#         316
  C:46E3H         LINE#         319
  C:46E6H         LINE#         320
  C:46E8H         LINE#         321
  C:46E9H         LINE#         324
  C:46ECH         LINE#         325
  C:46EDH         LINE#         326
  C:46EEH         LINE#         329
  C:46F0H         LINE#         330
  C:46F2H         LINE#         331
  C:46F4H         LINE#         332
  C:46F6H         LINE#         333
  C:46F9H         LINE#         334
  C:46FCH         LINE#         338
  C:46FFH         LINE#         339
  C:4701H         LINE#         340
  C:4702H         LINE#         345
  C:4705H         LINE#         346
  C:4706H         LINE#         347
  C:4707H         LINE#         348
  C:4708H         LINE#         349
  C:4709H         LINE#         350
  C:470AH         LINE#         351
  C:470CH         LINE#         352
  C:470DH         LINE#         353
  C:470EH         LINE#         354
  C:4711H         LINE#         358
  C:4714H         LINE#         359
  C:4715H         LINE#         360
  C:4716H         LINE#         365
  C:4717H         LINE#         387
  C:4719H         LINE#         394
  C:471CH         LINE#         395
  C:471DH         LINE#         396
  C:471EH         LINE#         397
  C:471FH         LINE#         398
  C:4720H         LINE#         399
  C:4721H         LINE#         400
  C:4722H         LINE#         401
  C:4724H         LINE#         402
  C:4725H         LINE#         403
  C:4726H         LINE#         404
  C:4729H         LINE#         408
  C:472CH         LINE#         409
  C:472EH         LINE#         410
  C:472FH         LINE#         413
  C:4732H         LINE#         414
  C:4734H         LINE#         415
  C:4735H         LINE#         418
  C:4738H         LINE#         419
  C:4739H         LINE#         420
  C:473AH         LINE#         423
BL51 BANKED LINKER/LOCATER V6.22                                                      05/14/2019  21:59:46  PAGE 61


  C:473DH         LINE#         424
  C:473FH         LINE#         425
  C:4740H         LINE#         429
  C:4743H         LINE#         430
  C:4744H         LINE#         431
  C:4745H         LINE#         432
  C:4746H         LINE#         433
  C:4747H         LINE#         434
  C:4749H         LINE#         435
  C:474AH         LINE#         436
  C:474BH         LINE#         437
  C:474EH         LINE#         441
  C:4751H         LINE#         442
  C:4752H         LINE#         443
  C:4753H         LINE#         446
  C:4756H         LINE#         447
  C:4757H         LINE#         448
  C:4758H         LINE#         449
  C:4759H         LINE#         450
  C:475AH         LINE#         451
  C:475BH         LINE#         452
  C:475CH         LINE#         453
  C:475DH         LINE#         454
  C:475EH         LINE#         455
  C:475FH         LINE#         456
  C:4760H         LINE#         457
  C:4761H         LINE#         462
  -------         ENDMOD        MOTORLIB

  -------         MODULE        ISD51_CONFIGURATION
  B:0020H.0       SEGMENT       ?BI?ISD51
  C:306AH         SEGMENT       ?PR?ISD51
  D:001FH         SEGMENT       ?DT?ISD51
  N:0000H         PUBLIC        ?ISD?CBLK_SIZE
  C:3163H         PUBLIC        ?ISD?CMDLOOP
  N:FFFFH         PUBLIC        ?ISD?CMP_E
  N:0000H         PUBLIC        ?ISD?CMP_S
  C:316EH         PUBLIC        ?ISD?GETBYTE
  N:E802H         PUBLIC        ?ISD?HWBREAKS
  C:3300H         PUBLIC        ?ISD?PUTCHAR
  C:332AH         PUBLIC        ?ISD?PUTCHAR_END
  N:00FFH         PUBLIC        ?ISD?RAMTOP
  C:31D0H         PUBLIC        ?ISD?READSFR00
  C:31E0H         PUBLIC        ?ISD?READSFR01
  C:31F0H         PUBLIC        ?ISD?READSFR02
  C:3200H         PUBLIC        ?ISD?READSFR03
  C:3210H         PUBLIC        ?ISD?READSFR04
  C:3220H         PUBLIC        ?ISD?READSFR05
  C:3230H         PUBLIC        ?ISD?READSFR06
  C:3240H         PUBLIC        ?ISD?READSFR07
  C:3250H         PUBLIC        ?ISD?READSFR08
  C:3260H         PUBLIC        ?ISD?READSFR09
  C:3270H         PUBLIC        ?ISD?READSFR10
  C:3280H         PUBLIC        ?ISD?READSFR11
  C:3290H         PUBLIC        ?ISD?READSFR12
  C:32A0H         PUBLIC        ?ISD?READSFR13
  C:32B0H         PUBLIC        ?ISD?READSFR14
BL51 BANKED LINKER/LOCATER V6.22                                                      05/14/2019  21:59:46  PAGE 62


  C:32C0H         PUBLIC        ?ISD?READSFR15
  C:32D0H         PUBLIC        ?ISD?READSFR16
  C:32E0H         PUBLIC        ?ISD?READSFR17
  C:32F0H         PUBLIC        ?ISD?READSFR18
  C:31A0H         PUBLIC        ?ISD?RESTART
  C:3198H         PUBLIC        ?ISD?SENDBYTE
  C:3109H         PUBLIC        ?ISD?SETHWBREAK
  N:00CDH         PUBLIC        ?ISD?VERSION
  C:31BCH         PUBLIC        ?ISD?WRITESFR00
  C:31C2H         PUBLIC        ?ISD?WRITESFR01
  C:31C8H         PUBLIC        ?ISD?WRITESFR02
  C:31CCH         PUBLIC        ?ISD?WRITESFR03
  C:332BH         PUBLIC        _GETKEY
  D:001FH         PUBLIC        _ISD_CHAR
  C:334BH         PUBLIC        _ISKEY
  C:3300H         PUBLIC        _PUTCHAR
  C:3365H         PUBLIC        __ISD_INIT
  C:3161H         SYMBOL        ?ISD?CMDLOOP2
  D:00E0H         SYMBOL        ACC
  D:008EH         SYMBOL        AUXR
  D:00F0H         SYMBOL        B
  D:0093H         SYMBOL        BPCTRL
  D:0095H         SYMBOL        BREAKH
  D:0094H         SYMBOL        BREAKL
  N:2000H         SYMBOL        BREAK_CODE
  N:E800H         SYMBOL        BREAK_XDATA
  C:30ACH         SYMBOL        C1T3INTERRUPT
  C:313FH         SYMBOL        CALLBREAK
  N:0010H         SYMBOL        CBLK
  C:317DH         SYMBOL        CHECKBREAK
  C:3189H         SYMBOL        CHECKBREAK1
  C:3176H         SYMBOL        CHECKBREAKS
  C:306AH         SYMBOL        COMINTERRUPT
  D:0083H         SYMBOL        DPH
  D:0082H         SYMBOL        DPL
  B:00A8H.7       SYMBOL        EA
  C:308EH         SYMBOL        EFLASHINTERRUPT
  D:00C0H         SYMBOL        EICON
  C:30A5H         SYMBOL        EPWM4INTERRUPT
  B:00A8H.4       SYMBOL        ES
  C:3347H         SYMBOL        GK_CLRRI
  C:30C3H         SYMBOL        HWBREAKENTRY
  C:30F3H         SYMBOL        HWBREAKPOINT
  C:3080H         SYMBOL        I2CINTERRUPT
  D:00A8H         SYMBOL        IE
  C:3364H         SYMBOL        IK_END
  C:3363H         SYMBOL        IK_ON
  D:00F9H         SYMBOL        INT_REG1
  D:00FAH         SYMBOL        INT_REG2
  D:00FDH         SYMBOL        INT_REG3
  D:00FEH         SYMBOL        INT_REG4
  N:0000H         SYMBOL        ISD51_CONFIGURATION
  C:30E5H         SYMBOL        LDV18INTERRUPT
  C:30ECH         SYMBOL        LDV33INTERRUPT
  D:0096H         SYMBOL        MEMCTRL
  C:313DH         SYMBOL        NOSERBREAK
  D:0080H         SYMBOL        P0
BL51 BANKED LINKER/LOCATER V6.22                                                      05/14/2019  21:59:46  PAGE 63


  D:0090H         SYMBOL        P1
  D:00A0H         SYMBOL        P2
  D:00B0H         SYMBOL        P3
  C:3095H         SYMBOL        P4T5INTERRUPT
  C:3317H         SYMBOL        PC_CHAR
  C:3328H         SYMBOL        PC_CHAR1
  C:332AH         SYMBOL        PC_END
  B:00C0H.5       SYMBOL        PFI
  D:00E6H         SYMBOL        PH_FMADRL
  D:00E4H         SYMBOL        PH_FMCON
  D:00B8H         SYMBOL        PIREG
  D:00D0H         SYMBOL        PSW
  C:31BAH         SYMBOL        RESTARTSS
  C:318EH         SYMBOL        RESTARTUSER
  C:3190H         SYMBOL        RETURNI
  B:0098H.0       SYMBOL        RI
  C:30DEH         SYMBOL        RTCINTERRUPT
  B:0020H.0       SYMBOL        SAVEEAI
  D:0099H         SYMBOL        SBUF
  D:0098H         SYMBOL        SCON
  C:3114H         SYMBOL        SELECTHWBP1
  C:314FH         SYMBOL        SEND7BYTES
  C:315AH         SYMBOL        SENDSTACKFRAME
  C:3122H         SYMBOL        SERIALINTERRUPT
  N:2023H         SYMBOL        SINTRVEC
  C:314DH         SYMBOL        SOFTBREAK
  D:0081H         SYMBOL        SP
  C:3087H         SYMBOL        SPIINTERRUPT
  C:30BCH         SYMBOL        T3INTERRUPT
  B:0098H.1       SYMBOL        TI
  D:0000H         SYMBOL        UARTFLAG
  C:333AH         SYMBOL        _GETKEY2
  C:3355H         SYMBOL        _ISKEY2
  C:2023H         LINE#         126
  C:2013H         LINE#         163
  C:2053H         LINE#         167
  C:2063H         LINE#         170
  C:206BH         LINE#         174
  C:306AH         LINE#         184
  C:306CH         LINE#         185
  C:306EH         LINE#         186
  C:3070H         LINE#         187
  C:3073H         LINE#         188
  C:3076H         LINE#         189
  C:3079H         LINE#         190
  C:307BH         LINE#         191
  C:307DH         LINE#         192
  C:3080H         LINE#         195
  C:3082H         LINE#         196
  C:3084H         LINE#         197
  C:3087H         LINE#         202
  C:3089H         LINE#         203
  C:308BH         LINE#         204
  C:308EH         LINE#         209
  C:3090H         LINE#         210
  C:3092H         LINE#         211
  C:3095H         LINE#         219
BL51 BANKED LINKER/LOCATER V6.22                                                      05/14/2019  21:59:46  PAGE 64


  C:3097H         LINE#         220
  C:3099H         LINE#         221
  C:309BH         LINE#         222
  C:309EH         LINE#         224
  C:30A0H         LINE#         225
  C:30A2H         LINE#         227
  C:30A5H         LINE#         230
  C:30A7H         LINE#         231
  C:30A9H         LINE#         233
  C:30ACH         LINE#         240
  C:30AEH         LINE#         241
  C:30B0H         LINE#         242
  C:30B2H         LINE#         243
  C:30B5H         LINE#         244
  C:30B7H         LINE#         245
  C:30B9H         LINE#         246
  C:30BCH         LINE#         248
  C:30BEH         LINE#         249
  C:30C0H         LINE#         250
  C:30C3H         LINE#         261
  C:30C5H         LINE#         262
  C:30C7H         LINE#         263
  C:30C9H         LINE#         264
  C:30CCH         LINE#         265
  C:30CEH         LINE#         266
  C:30D1H         LINE#         267
  C:30D4H         LINE#         268
  C:30D7H         LINE#         269
  C:30D9H         LINE#         270
  C:30DBH         LINE#         271
  C:30DEH         LINE#         274
  C:30E0H         LINE#         275
  C:30E2H         LINE#         276
  C:30E5H         LINE#         279
  C:30E7H         LINE#         280
  C:30E9H         LINE#         281
  C:30ECH         LINE#         285
  C:30EEH         LINE#         286
  C:30F0H         LINE#         287
  C:30F3H         LINE#         292
  C:30F6H         LINE#         293
  C:30F8H         LINE#         294
  C:30FAH         LINE#         296
  C:30FCH         LINE#         297
  C:30FDH         LINE#         298
  C:30FFH         LINE#         299
  C:3100H         LINE#         301
  C:3103H         LINE#         303
  C:3105H         LINE#         304
  C:3107H         LINE#         305
  C:3109H         LINE#         318
  C:310AH         LINE#         319
  C:310BH         LINE#         320
  C:310EH         LINE#         321
  C:3111H         LINE#         322
  C:3114H         LINE#         323
  C:3115H         LINE#         324
BL51 BANKED LINKER/LOCATER V6.22                                                      05/14/2019  21:59:46  PAGE 65


  C:3118H         LINE#         325
  C:311AH         LINE#         326
  C:311CH         LINE#         327
  C:311EH         LINE#         328
  C:3120H         LINE#         329
  C:3122H         LINE#         346
  C:3124H         LINE#         347
  C:3126H         LINE#         348
  C:3129H         LINE#         349
  C:312BH         LINE#         349
  C:312DH         LINE#         351
  C:312FH         LINE#         353
  C:3132H         LINE#         355
  C:3134H         LINE#         356
  C:3137H         LINE#         357
  C:3139H         LINE#         358
  C:313BH         LINE#         359
  C:313DH         LINE#         361
  C:313FH         LINE#         362
  C:3142H         LINE#         363
  C:3144H         LINE#         364
  C:3146H         LINE#         365
  C:3148H         LINE#         367
  C:314AH         LINE#         368
  C:314DH         LINE#         387
  C:314FH         LINE#         389
  C:3152H         LINE#         389
  C:3154H         LINE#         389
  C:3156H         LINE#         390
  C:3158H         LINE#         391
  C:315AH         LINE#         392
  C:315CH         LINE#         393
  C:315EH         LINE#         394
  C:3160H         LINE#         395
  C:3161H         LINE#         396
  C:3163H         LINE#         401
  C:3165H         LINE#         402
  C:3167H         LINE#         403
  C:3169H         LINE#         404
  C:316BH         LINE#         405
  C:316DH         LINE#         406
  C:316EH         LINE#         410
  C:3171H         LINE#         410
  C:3173H         LINE#         410
  C:3175H         LINE#         411
  C:3176H         LINE#         415
  C:3178H         LINE#         416
  C:317AH         LINE#         417
  C:317BH         LINE#         418
  C:317DH         LINE#         419
  C:317EH         LINE#         420
  C:317FH         LINE#         421
  C:3180H         LINE#         422
  C:3181H         LINE#         423
  C:3182H         LINE#         424
  C:3183H         LINE#         425
  C:3185H         LINE#         426
BL51 BANKED LINKER/LOCATER V6.22                                                      05/14/2019  21:59:46  PAGE 66


  C:3186H         LINE#         427
  C:3187H         LINE#         428
  C:3189H         LINE#         429
  C:318CH         LINE#         431
  C:318EH         LINE#         432
  C:3190H         LINE#         435
  C:3192H         LINE#         436
  C:3194H         LINE#         438
  C:3197H         LINE#         440
  C:3198H         LINE#         444
  C:319BH         LINE#         444
  C:319DH         LINE#         444
  C:319FH         LINE#         445
  C:31A0H         LINE#         452
  C:31A2H         LINE#         453
  C:31A4H         LINE#         454
  C:31A6H         LINE#         455
  C:31A8H         LINE#         456
  C:31AAH         LINE#         457
  C:31ACH         LINE#         458
  C:31ADH         LINE#         459
  C:31AFH         LINE#         460
  C:31B1H         LINE#         461
  C:31B3H         LINE#         462
  C:31B5H         LINE#         463
  C:31B6H         LINE#         510
  C:31B8H         LINE#         515
  C:31BAH         LINE#         516
  C:31BCH         LINE#         548
  C:31BEH         LINE#         549
  C:31C0H         LINE#         550
  C:31C2H         LINE#         557
  C:31C4H         LINE#         558
  C:31C6H         LINE#         559
  C:31C8H         LINE#         566
  C:31CAH         LINE#         567
  C:31CCH         LINE#         574
  C:31CEH         LINE#         575
  C:31D0H         LINE#         599
  C:31D2H         LINE#         600
  C:31D4H         LINE#         601
  C:31D6H         LINE#         602
  C:31D8H         LINE#         603
  C:31DAH         LINE#         604
  C:31DCH         LINE#         605
  C:31DEH         LINE#         606
  C:31E0H         LINE#         614
  C:31E2H         LINE#         615
  C:31E4H         LINE#         616
  C:31E6H         LINE#         617
  C:31E8H         LINE#         618
  C:31EAH         LINE#         619
  C:31ECH         LINE#         620
  C:31EEH         LINE#         621
  C:31F0H         LINE#         629
  C:31F2H         LINE#         630
  C:31F4H         LINE#         631
BL51 BANKED LINKER/LOCATER V6.22                                                      05/14/2019  21:59:46  PAGE 67


  C:31F6H         LINE#         632
  C:31F8H         LINE#         633
  C:31FAH         LINE#         634
  C:31FCH         LINE#         635
  C:31FEH         LINE#         636
  C:3200H         LINE#         644
  C:3202H         LINE#         645
  C:3204H         LINE#         646
  C:3206H         LINE#         647
  C:3208H         LINE#         648
  C:320AH         LINE#         649
  C:320CH         LINE#         650
  C:320EH         LINE#         651
  C:3210H         LINE#         659
  C:3212H         LINE#         660
  C:3214H         LINE#         661
  C:3216H         LINE#         662
  C:3218H         LINE#         663
  C:321AH         LINE#         664
  C:321CH         LINE#         665
  C:321EH         LINE#         666
  C:3220H         LINE#         673
  C:3222H         LINE#         674
  C:3224H         LINE#         675
  C:3226H         LINE#         676
  C:3228H         LINE#         677
  C:322AH         LINE#         678
  C:322CH         LINE#         679
  C:322EH         LINE#         680
  C:3230H         LINE#         687
  C:3232H         LINE#         688
  C:3234H         LINE#         689
  C:3236H         LINE#         690
  C:3238H         LINE#         691
  C:323AH         LINE#         692
  C:323CH         LINE#         693
  C:323EH         LINE#         694
  C:3240H         LINE#         701
  C:3242H         LINE#         702
  C:3244H         LINE#         703
  C:3246H         LINE#         704
  C:3248H         LINE#         705
  C:324AH         LINE#         706
  C:324CH         LINE#         707
  C:324EH         LINE#         708
  C:3250H         LINE#         715
  C:3252H         LINE#         716
  C:3254H         LINE#         717
  C:3256H         LINE#         718
  C:3258H         LINE#         719
  C:325AH         LINE#         720
  C:325CH         LINE#         721
  C:325EH         LINE#         722
  C:3260H         LINE#         729
  C:3262H         LINE#         730
  C:3264H         LINE#         731
  C:3266H         LINE#         732
BL51 BANKED LINKER/LOCATER V6.22                                                      05/14/2019  21:59:46  PAGE 68


  C:3268H         LINE#         733
  C:326AH         LINE#         734
  C:326CH         LINE#         735
  C:326EH         LINE#         736
  C:3270H         LINE#         743
  C:3272H         LINE#         744
  C:3274H         LINE#         745
  C:3276H         LINE#         746
  C:3278H         LINE#         747
  C:327AH         LINE#         748
  C:327CH         LINE#         749
  C:327EH         LINE#         750
  C:3280H         LINE#         757
  C:3282H         LINE#         758
  C:3284H         LINE#         759
  C:3286H         LINE#         760
  C:3288H         LINE#         761
  C:328AH         LINE#         762
  C:328CH         LINE#         763
  C:328EH         LINE#         764
  C:3290H         LINE#         771
  C:3292H         LINE#         772
  C:3294H         LINE#         773
  C:3296H         LINE#         774
  C:3298H         LINE#         775
  C:329AH         LINE#         776
  C:329CH         LINE#         777
  C:329EH         LINE#         778
  C:32A0H         LINE#         785
  C:32A2H         LINE#         786
  C:32A4H         LINE#         787
  C:32A6H         LINE#         788
  C:32A8H         LINE#         789
  C:32AAH         LINE#         790
  C:32ACH         LINE#         791
  C:32AEH         LINE#         792
  C:32B0H         LINE#         799
  C:32B2H         LINE#         800
  C:32B4H         LINE#         801
  C:32B6H         LINE#         802
  C:32B8H         LINE#         803
  C:32BAH         LINE#         804
  C:32BCH         LINE#         805
  C:32BEH         LINE#         806
  C:32C0H         LINE#         813
  C:32C2H         LINE#         814
  C:32C4H         LINE#         815
  C:32C6H         LINE#         816
  C:32C8H         LINE#         817
  C:32CAH         LINE#         818
  C:32CCH         LINE#         819
  C:32CEH         LINE#         820
  C:32D0H         LINE#         827
  C:32D2H         LINE#         828
  C:32D4H         LINE#         829
  C:32D6H         LINE#         830
  C:32D8H         LINE#         831
BL51 BANKED LINKER/LOCATER V6.22                                                      05/14/2019  21:59:46  PAGE 69


  C:32DAH         LINE#         832
  C:32DCH         LINE#         833
  C:32DEH         LINE#         834
  C:32E0H         LINE#         841
  C:32E2H         LINE#         842
  C:32E4H         LINE#         843
  C:32E6H         LINE#         844
  C:32E8H         LINE#         845
  C:32EAH         LINE#         846
  C:32ECH         LINE#         847
  C:32EEH         LINE#         848
  C:32F0H         LINE#         855
  C:32F2H         LINE#         856
  C:32F4H         LINE#         857
  C:32F6H         LINE#         858
  C:32F8H         LINE#         859
  C:32FAH         LINE#         860
  C:32FCH         LINE#         861
  C:32FEH         LINE#         862
  C:3300H         LINE#         871
  C:3303H         LINE#         872
  C:3305H         LINE#         873
  C:3306H         LINE#         874
  C:3308H         LINE#         875
  C:330AH         LINE#         876
  C:330CH         LINE#         877
  C:330EH         LINE#         878
  C:3310H         LINE#         879
  C:3312H         LINE#         880
  C:3314H         LINE#         881
  C:3317H         LINE#         882
  C:3318H         LINE#         883
  C:331AH         LINE#         884
  C:331CH         LINE#         885
  C:331FH         LINE#         886
  C:3321H         LINE#         887
  C:3323H         LINE#         888
  C:3324H         LINE#         890
  C:3326H         LINE#         894
  C:3328H         LINE#         896
  C:332AH         LINE#         898
  C:332BH         LINE#         908
  C:332EH         LINE#         909
  C:3330H         LINE#         910
  C:3332H         LINE#         911
  C:3334H         LINE#         912
  C:3336H         LINE#         913
  C:3338H         LINE#         914
  C:3339H         LINE#         915
  C:333AH         LINE#         917
  C:333DH         LINE#         918
  C:333FH         LINE#         919
  C:3342H         LINE#         920
  C:3345H         LINE#         921
  C:3347H         LINE#         923
  C:3348H         LINE#         924
  C:334AH         LINE#         925
BL51 BANKED LINKER/LOCATER V6.22                                                      05/14/2019  21:59:46  PAGE 70


  C:334BH         LINE#         929
  C:334EH         LINE#         930
  C:3350H         LINE#         931
  C:3353H         LINE#         932
  C:3354H         LINE#         933
  C:3355H         LINE#         935
  C:3356H         LINE#         936
  C:3359H         LINE#         937
  C:335BH         LINE#         938
  C:335EH         LINE#         939
  C:3361H         LINE#         940
  C:3363H         LINE#         941
  C:3364H         LINE#         942
  C:3365H         LINE#         958
  C:3367H         LINE#         959
  C:3369H         LINE#         961
  C:336CH         LINE#         963
  C:336EH         LINE#         964
  C:336FH         LINE#         965
  -------         ENDMOD        ISD51_CONFIGURATION

  -------         MODULE        IQMATHLIB
  C:0000H         SYMBOL        _ICE_DUMMY_
  D:0080H         PUBLIC        P0
  D:0090H         PUBLIC        P1
  D:00A0H         PUBLIC        P2
  D:00B0H         PUBLIC        P3
  D:00A8H         PUBLIC        IEN0
  D:00B8H         PUBLIC        IEN1
  C:24F6H         PUBLIC        MagnitudeTable
  C:3F30H         PUBLIC        __IQ15mag
  D:0008H         PUBLIC        index
  C:3D0EH         PUBLIC        __IQ15sin
  C:35E8H         PUBLIC        __IQ15sqrt
  D:0088H         PUBLIC        TCON
  C:33AAH         PUBLIC        __IQ15atan2
  D:0009H         PUBLIC        dat
  C:3BF5H         PUBLIC        __IQmul
  D:000DH         PUBLIC        X
  D:0011H         PUBLIC        Y
  D:0015H         PUBLIC        Z
  D:0098H         PUBLIC        S0CON
  D:00C8H         PUBLIC        T2CON
  C:20F6H         PUBLIC        PolarTable
  D:00EFH         PUBLIC        ARCON
  D:00D8H         PUBLIC        WDCON
  D:00C0H         PUBLIC        IRCON
  -------         PROC          __IQMUL
  D:0021H         SYMBOL        A
  D:0025H         SYMBOL        B
  C:3BF5H         LINE#         122
  C:3BFDH         LINE#         123
  C:3BFDH         LINE#         126
  C:3C13H         LINE#         127
  C:3C29H         LINE#         128
  C:3C4AH         LINE#         129
  C:3C71H         LINE#         130
BL51 BANKED LINKER/LOCATER V6.22                                                      05/14/2019  21:59:46  PAGE 71


  C:3C98H         LINE#         131
  C:3D05H         LINE#         137
  C:3D0DH         LINE#         140
  -------         ENDPROC       __IQMUL
  -------         PROC          __IQ15SIN
  D:003EH         SYMBOL        A
  C:3D0EH         LINE#         164
  C:3D16H         LINE#         165
  C:3D16H         LINE#         167
  C:3D29H         LINE#         172
  C:3D3FH         LINE#         173
  C:3D3FH         LINE#         174
  C:3D58H         LINE#         175
  C:3D5AH         LINE#         180
  C:3D89H         LINE#         181
  C:3D9FH         LINE#         182
  C:3DC6H         LINE#         183
  C:3DDCH         LINE#         184
  C:3DF2H         LINE#         186
  C:3E1BH         LINE#         188
  C:3E23H         LINE#         190
  -------         ENDPROC       __IQ15SIN
  -------         PROC          __IQ15SQRT
  D:0042H         SYMBOL        A
  C:35E8H         LINE#         217
  C:35F0H         LINE#         219
  C:35F0H         LINE#         221
  C:360FH         LINE#         223
  C:3622H         LINE#         224
  C:3629H         LINE#         226
  C:3636H         LINE#         227
  C:3636H         LINE#         228
  C:364EH         LINE#         229
  C:3670H         LINE#         231
  C:369CH         LINE#         232
  C:369EH         LINE#         234
  C:369EH         LINE#         235
  C:36A0H         LINE#         237
  C:36B6H         LINE#         238
  C:36CEH         LINE#         239
  C:36FAH         LINE#         240
  C:36FAH         LINE#         241
  C:3710H         LINE#         242
  C:3726H         LINE#         246
  C:372FH         LINE#         247
  C:374FH         LINE#         248
  C:3771H         LINE#         250
  C:3779H         LINE#         251
  -------         ENDPROC       __IQ15SQRT
  -------         PROC          __IQ15ATAN2
  D:0029H         SYMBOL        A
  D:002DH         SYMBOL        B
  C:33AAH         LINE#         268
  C:33B2H         LINE#         269
  C:33B2H         LINE#         270
  C:33C5H         LINE#         271
  C:33D8H         LINE#         274
BL51 BANKED LINKER/LOCATER V6.22                                                      05/14/2019  21:59:46  PAGE 72


  C:33EEH         LINE#         275
  C:33EEH         LINE#         279
  C:3404H         LINE#         280
  C:341AH         LINE#         281
  C:3435H         LINE#         284
  C:3438H         LINE#         288
  C:343AH         LINE#         290
  C:343AH         LINE#         291
  C:3450H         LINE#         292
  C:3466H         LINE#         293
  C:3481H         LINE#         296
  C:3484H         LINE#         297
  C:3484H         LINE#         301
  C:34B0H         LINE#         302
  C:34CBH         LINE#         303
  C:34E1H         LINE#         304
  C:34F7H         LINE#         307
  C:3512H         LINE#         309
  C:353EH         LINE#         310
  C:3557H         LINE#         311
  C:3583H         LINE#         312
  C:359DH         LINE#         313
  C:35C9H         LINE#         314
  C:35DFH         LINE#         318
  C:35E7H         LINE#         319
  -------         ENDPROC       __IQ15ATAN2
  -------         PROC          __IQ15MAG
  D:0031H         SYMBOL        A
  D:0035H         SYMBOL        B
  C:3F30H         LINE#         322
  C:3F38H         LINE#         323
  C:3F38H         LINE#         324
  C:3FB6H         LINE#         325
  C:3FC9H         LINE#         326
  C:3FD1H         LINE#         328
  -------         ENDPROC       __IQ15MAG
  -------         ENDMOD        IQMATHLIB

  -------         MODULE        IQMATHASM
  C:206EH         SEGMENT       ?PR?_BARRELSHIFT?IQMATHASM
  D:0039H         SEGMENT       ?DT?_BARRELSHIFT?IQMATHASM
  C:4A06H         SEGMENT       ?PR?_NORMALIZE?IQMATHASM
  D:0046H         SEGMENT       ?DT?_NORMALIZE?IQMATHASM
  C:203BH         SEGMENT       ?PR?__IQABS?IQMATHASM
  D:004AH         SEGMENT       ?DT?__IQABS?IQMATHASM
  D:0039H         PUBLIC        ?_BARRELSHIFT?BYTE
  C:206EH         PUBLIC        _BARRELSHIFT
  C:4A06H         PUBLIC        _NORMALIZE
  C:203BH         PUBLIC        __IQABS
  C:4A11H         SYMBOL        ?C0002
  C:4A1FH         SYMBOL        ?C0003
  C:4A1AH         SYMBOL        ?C0004
  C:4A1CH         SYMBOL        ?C0005
  C:2042H         SYMBOL        ?C0007
  D:0046H         SYMBOL        ?_NORMALIZE?BYTE
  D:004AH         SYMBOL        ?__IQABS?BYTE
  D:0046H         SYMBOL        A?142
BL51 BANKED LINKER/LOCATER V6.22                                                      05/14/2019  21:59:46  PAGE 73


  D:004AH         SYMBOL        A?143
  D:00E0H         SYMBOL        ACC
  D:00EFH         SYMBOL        ARCON
  D:00ABH         SYMBOL        BSHCTL
  D:00ACH         SYMBOL        BSHI_0
  D:00ADH         SYMBOL        BSHI_1
  D:00AEH         SYMBOL        BSHI_2
  D:00AFH         SYMBOL        BSHI_3
  D:00BCH         SYMBOL        BSHO_0
  D:00BDH         SYMBOL        BSHO_1
  D:00BEH         SYMBOL        BSHO_2
  D:00BFH         SYMBOL        BSHO_3
  D:003DH         SYMBOL        CMD
  D:0039H         SYMBOL        IN?040
  D:00E9H         SYMBOL        MD0
  D:00EAH         SYMBOL        MD1
  D:00EBH         SYMBOL        MD2
  D:00ECH         SYMBOL        MD3
  C:206EH         LINE#         78
  C:2071H         LINE#         79
  C:2073H         LINE#         80
  C:2075H         LINE#         81
  C:2077H         LINE#         82
  C:2079H         LINE#         83
  C:207BH         LINE#         84
  C:207DH         LINE#         85
  C:207FH         LINE#         86
  C:2081H         LINE#         87
  C:4A06H         LINE#         112
  C:4A08H         LINE#         113
  C:4A0AH         LINE#         114
  C:4A0CH         LINE#         115
  C:4A0EH         LINE#         116
  C:4A11H         LINE#         119
  C:4A13H         LINE#         120
  C:4A16H         LINE#         121
  C:4A18H         LINE#         122
  C:4A1AH         LINE#         124
  C:4A1CH         LINE#         126
  C:4A1DH         LINE#         127
  C:4A1FH         LINE#         129
  C:4A21H         LINE#         130
  C:4A23H         LINE#         131
  C:4A25H         LINE#         132
  C:4A27H         LINE#         133
  C:203BH         LINE#         138
  C:203CH         LINE#         139
  C:203FH         LINE#         140
  C:2042H         LINE#         143
  -------         ENDMOD        IQMATHASM

  -------         MODULE        ?C?SCDIV
  C:3905H         PUBLIC        ?C?SCDIV
  -------         ENDMOD        ?C?SCDIV

  -------         MODULE        ?C?LMUL
  C:3927H         PUBLIC        ?C?LMUL
BL51 BANKED LINKER/LOCATER V6.22                                                      05/14/2019  21:59:46  PAGE 74


  -------         ENDMOD        ?C?LMUL

  -------         MODULE        ?C?SLDIV
  C:47ECH         PUBLIC        ?C?SLDIV
  -------         ENDMOD        ?C?SLDIV

  -------         MODULE        ?C?LNEG
  C:3976H         PUBLIC        ?C?LNEG
  -------         ENDMOD        ?C?LNEG

  -------         MODULE        ?C?SLCMP
  C:3984H         PUBLIC        ?C?SLCMP
  -------         ENDMOD        ?C?SLCMP

  -------         MODULE        ?C?LSHL
  C:399AH         PUBLIC        ?C?LSHL
  -------         ENDMOD        ?C?LSHL

  -------         MODULE        ?C?LSTXDATA
  C:39ADH         PUBLIC        ?C?LSTXDATA
  -------         ENDMOD        ?C?LSTXDATA

  -------         MODULE        ISD_CORE_FUNCTIONS
  N:0064H         PUBLIC        ?ISD?CORE
  C:3388H         PUBLIC        ?ISD?READCMEM
  C:3395H         PUBLIC        ?ISD?READIMEM
  C:3378H         PUBLIC        ?ISD?READXMEM
  C:33A6H         PUBLIC        ?ISD?WRITEIMEM
  C:339EH         PUBLIC        ?ISD?WRITEXMEM
  -------         ENDMOD        ISD_CORE_FUNCTIONS

  -------         MODULE        ?C?ULDIV
  C:39F5H         PUBLIC        ?C?ULDIV
  -------         ENDMOD        ?C?ULDIV



FUNCTION REGISTER MASKS


FUNCTION . . . . . . . REG MASK
-------------------------------

ADCINTERRUPT . . . . . @0xe303
COMP1INTERRUPT . . . . @0xe301
COMP234INTERRUPT . . . @0xf301
EFLASHINTERRUPT. . . . @0xf303
EPWM123INTERRUPT . . . @0xf001
EPWM4INTERRUPT . . . . @0xf303
EXT1234INTERRUPT . . . @0xf001
I2CINTERRUPT . . . . . @0xf303
LDV18INTERRUPT . . . . @0xe001
LDV33INTERRUPT . . . . @0xe001
RTCINTERRUPT . . . . . @0xe001
SPIINTERRUPT . . . . . @0xf303
TIMER0INTERRUPT. . . . @0xe301
TIMER1INTERRUPT. . . . @0xc000
BL51 BANKED LINKER/LOCATER V6.22                                                      05/14/2019  21:59:46  PAGE 75


TIMER4INTERRUPT. . . . @0xe301
TIMER5INTERRUPT. . . . @0xf303
TIMER6INTERRUPT. . . . @0xf303
UART1INTERRUPT . . . . @0xc000
UART2INTERRUPT . . . . @0xe000

Program Size: data=78.1 xdata=32 code=10819
LINK/LOCATE RUN COMPLETE.  0 WARNING(S),  0 ERROR(S)
